
kombo_nrf24_test_slave.elf:     file format elf32-avr

Sections:
Idx Name          Size      VMA       LMA       File off  Algn
  0 .text         00000c7c  00000000  00000000  00000094  2**1
                  CONTENTS, ALLOC, LOAD, READONLY, CODE
  1 .data         000000ca  00800060  00000c7c  00000d10  2**0
                  CONTENTS, ALLOC, LOAD, DATA
  2 .bss          00000084  0080012a  0080012a  00000dda  2**0
                  ALLOC
  3 .comment      0000005c  00000000  00000000  00000dda  2**0
                  CONTENTS, READONLY
  4 .note.gnu.avr.deviceinfo 0000003c  00000000  00000000  00000e38  2**2
                  CONTENTS, READONLY
  5 .debug_aranges 00000160  00000000  00000000  00000e74  2**0
                  CONTENTS, READONLY, DEBUGGING
  6 .debug_info   0000176e  00000000  00000000  00000fd4  2**0
                  CONTENTS, READONLY, DEBUGGING
  7 .debug_abbrev 00000a4e  00000000  00000000  00002742  2**0
                  CONTENTS, READONLY, DEBUGGING
  8 .debug_line   00000c63  00000000  00000000  00003190  2**0
                  CONTENTS, READONLY, DEBUGGING
  9 .debug_frame  0000037c  00000000  00000000  00003df4  2**2
                  CONTENTS, READONLY, DEBUGGING
 10 .debug_str    00000593  00000000  00000000  00004170  2**0
                  CONTENTS, READONLY, DEBUGGING
 11 .debug_loc    00000bdf  00000000  00000000  00004703  2**0
                  CONTENTS, READONLY, DEBUGGING
 12 .debug_ranges 00000120  00000000  00000000  000052e2  2**0
                  CONTENTS, READONLY, DEBUGGING

Disassembly of section .text:

00000000 <__vectors>:
   0:	12 c0       	rjmp	.+36     	; 0x26 <__ctors_end>
   2:	31 c2       	rjmp	.+1122   	; 0x466 <__vector_1>
   4:	2b c0       	rjmp	.+86     	; 0x5c <__bad_interrupt>
   6:	2a c0       	rjmp	.+84     	; 0x5c <__bad_interrupt>
   8:	29 c0       	rjmp	.+82     	; 0x5c <__bad_interrupt>
   a:	28 c0       	rjmp	.+80     	; 0x5c <__bad_interrupt>
   c:	27 c0       	rjmp	.+78     	; 0x5c <__bad_interrupt>
   e:	26 c0       	rjmp	.+76     	; 0x5c <__bad_interrupt>
  10:	25 c0       	rjmp	.+74     	; 0x5c <__bad_interrupt>
  12:	24 c0       	rjmp	.+72     	; 0x5c <__bad_interrupt>
  14:	23 c0       	rjmp	.+70     	; 0x5c <__bad_interrupt>
  16:	1d c2       	rjmp	.+1082   	; 0x452 <__vector_11>
  18:	21 c0       	rjmp	.+66     	; 0x5c <__bad_interrupt>
  1a:	20 c0       	rjmp	.+64     	; 0x5c <__bad_interrupt>
  1c:	1f c0       	rjmp	.+62     	; 0x5c <__bad_interrupt>
  1e:	1e c0       	rjmp	.+60     	; 0x5c <__bad_interrupt>
  20:	1d c0       	rjmp	.+58     	; 0x5c <__bad_interrupt>
  22:	1c c0       	rjmp	.+56     	; 0x5c <__bad_interrupt>
  24:	1b c0       	rjmp	.+54     	; 0x5c <__bad_interrupt>

00000026 <__ctors_end>:
  26:	11 24       	eor	r1, r1
  28:	1f be       	out	0x3f, r1	; 63
  2a:	cf e5       	ldi	r28, 0x5F	; 95
  2c:	d4 e0       	ldi	r29, 0x04	; 4
  2e:	de bf       	out	0x3e, r29	; 62
  30:	cd bf       	out	0x3d, r28	; 61

00000032 <__do_copy_data>:
  32:	11 e0       	ldi	r17, 0x01	; 1
  34:	a0 e6       	ldi	r26, 0x60	; 96
  36:	b0 e0       	ldi	r27, 0x00	; 0
  38:	ec e7       	ldi	r30, 0x7C	; 124
  3a:	fc e0       	ldi	r31, 0x0C	; 12
  3c:	02 c0       	rjmp	.+4      	; 0x42 <__SREG__+0x3>
  3e:	05 90       	lpm	r0, Z+
  40:	0d 92       	st	X+, r0
  42:	aa 32       	cpi	r26, 0x2A	; 42
  44:	b1 07       	cpc	r27, r17
  46:	d9 f7       	brne	.-10     	; 0x3e <__SP_H__>

00000048 <__do_clear_bss>:
  48:	21 e0       	ldi	r18, 0x01	; 1
  4a:	aa e2       	ldi	r26, 0x2A	; 42
  4c:	b1 e0       	ldi	r27, 0x01	; 1
  4e:	01 c0       	rjmp	.+2      	; 0x52 <.do_clear_bss_start>

00000050 <.do_clear_bss_loop>:
  50:	1d 92       	st	X+, r1

00000052 <.do_clear_bss_start>:
  52:	ae 3a       	cpi	r26, 0xAE	; 174
  54:	b2 07       	cpc	r27, r18
  56:	e1 f7       	brne	.-8      	; 0x50 <.do_clear_bss_loop>
  58:	b9 d2       	rcall	.+1394   	; 0x5cc <main>
  5a:	0e c6       	rjmp	.+3100   	; 0xc78 <_exit>

0000005c <__bad_interrupt>:
  5c:	d1 cf       	rjmp	.-94     	; 0x0 <__vectors>

0000005e <interrupt_off>:

//РџСЂРѕС†РµРґСѓСЂР° РѕС‚РєР»СЋС‡РµРЅРёСЏ РїСЂРµСЂС‹РІР°РЅРёР№
void interrupt_off(void)
{
	#ifdef ATMEGA8
	sreg_temp = SREG;				//СЃРѕС…СЂР°РЅРёРј Р·РЅР°С‡РµРЅРёРµ СЂРµРіРёСЃС‚СЂР° СЃС‚Р°С‚СѓСЃР°
  5e:	8f b7       	in	r24, 0x3f	; 63
  60:	80 93 ad 01 	sts	0x01AD, r24	; 0x8001ad <sreg_temp>
	cli();							//Р·Р°РїСЂРµС‰Р°РµРј РїСЂРµСЂС‹РІР°РЅРёСЏ
  64:	f8 94       	cli
  66:	08 95       	ret

00000068 <interrupt_on>:

//РџСЂРѕС†РµРґСѓСЂР° РІРєР»СЋС‡РµРЅРёСЏ РїСЂРµСЂС‹РІР°РЅРёР№
void interrupt_on(void)
{
	#ifdef ATMEGA8
	SREG = sreg_temp;					//РІРµСЂРЅРµРј Р·РЅР°С‡РµРЅРёРµ СЂРµРіРёСЃС‚СЂР° СЃС‚Р°С‚СѓСЃР° РІ РёСЃС…РѕРґРЅРѕРµ СЃРѕСЃС‚РѕСЏРЅРёРµ
  68:	80 91 ad 01 	lds	r24, 0x01AD	; 0x8001ad <sreg_temp>
  6c:	8f bf       	out	0x3f, r24	; 63
  6e:	08 95       	ret

00000070 <uni_delay_us>:
	#endif
}

//Р¤СѓРЅРєС†РёСЏ РјРёРєСЂРѕСЃРµРєСѓРЅРґРЅРѕР№ Р·Р°РґРµСЂР¶РєРё РґР»СЏ СЂР°Р·РЅС‹С… РјРёРєСЂРѕРєРѕРЅС‚СЂРѕР»Р»РµСЂРѕРІ
void uni_delay_us(uint32_t us)
{
  70:	0f 93       	push	r16
  72:	1f 93       	push	r17
		
	#ifdef ATMEGA8
	while(us--)	_delay_us(1u);	
  74:	06 c0       	rjmp	.+12     	; 0x82 <uni_delay_us+0x12>
	#else
		//round up by default
		__ticks_dc = (uint32_t)(ceil(fabs(__tmp)));
	#endif

	__builtin_avr_delay_cycles(__ticks_dc);
  76:	82 e0       	ldi	r24, 0x02	; 2
  78:	8a 95       	dec	r24
  7a:	f1 f7       	brne	.-4      	; 0x78 <uni_delay_us+0x8>
  7c:	00 c0       	rjmp	.+0      	; 0x7e <uni_delay_us+0xe>
  7e:	c9 01       	movw	r24, r18
  80:	b8 01       	movw	r22, r16
  82:	8b 01       	movw	r16, r22
  84:	9c 01       	movw	r18, r24
  86:	01 50       	subi	r16, 0x01	; 1
  88:	11 09       	sbc	r17, r1
  8a:	21 09       	sbc	r18, r1
  8c:	31 09       	sbc	r19, r1
  8e:	67 2b       	or	r22, r23
  90:	68 2b       	or	r22, r24
  92:	69 2b       	or	r22, r25
  94:	81 f7       	brne	.-32     	; 0x76 <uni_delay_us+0x6>
	#endif
	
	#ifdef STM32_LL
	delay_us(us);
	#endif
}
  96:	1f 91       	pop	r17
  98:	0f 91       	pop	r16
  9a:	08 95       	ret

0000009c <nrf24_read_reg>:

//Р¤СѓРЅРєС†РёСЏ С‡С‚РµРЅРёСЏ СЂРµРіРёСЃС‚СЂР° РјРѕРґСѓР»СЏ
uint8_t nrf24_read_reg(uint8_t addr)
{
  9c:	cf 93       	push	r28
  9e:	c8 2f       	mov	r28, r24
	uint8_t dt = 0, cmd;				//РїРµСЂРµРјРµРЅРЅС‹Рµ РґР°РЅРЅС‹С… Рё РєРѕРјР°РЅРґС‹
	CSN_ON();										//РїСЂРёР¶РёРјР°РµРј РЅРѕРіСѓ CS Рє Р·РµРјР»Рµ
  a0:	82 b3       	in	r24, 0x12	; 18
  a2:	8f 77       	andi	r24, 0x7F	; 127
  a4:	82 bb       	out	0x12, r24	; 18
	dt = spi_change_byte(addr);	//РѕС‚РїСЂР°РІРєР° Р°РґСЂРµСЃР° СЂРµРіРёСЃС‚СЂР°, РїСЂРёРµРј
  a6:	8c 2f       	mov	r24, r28
  a8:	b7 d2       	rcall	.+1390   	; 0x618 <spi_change_byte>
	
	//РµСЃР»Рё Р°РґСЂРµСЃ СЂР°РІРµРЅ Р°РґСЂРµСЃСѓ СЂРµРіРёСЃС‚СЂР° СЃС‚Р°С‚СѓСЃР° С‚Рѕ Рё РІРѕР·РІР°СЂС‰Р°РµРј РµРіРѕ СЃРѕСЃС‚РѕСЏРЅРёРµ	
	if (addr != STATUS)					//Р° РµСЃР»Рё РЅРµ СЂР°РІРµРЅ
  aa:	c7 30       	cpi	r28, 0x07	; 7
  ac:	11 f0       	breq	.+4      	; 0xb2 <nrf24_read_reg+0x16>
	{
		cmd = 0xFF;								//РєРѕРјР°РЅРґР° NOP РґР»СЏ РїРѕР»СѓС‡РµРЅРёСЏ РґР°РЅРЅС‹С…
		dt = spi_change_byte(cmd);//
  ae:	8f ef       	ldi	r24, 0xFF	; 255
  b0:	b3 d2       	rcall	.+1382   	; 0x618 <spi_change_byte>
	}
	CSN_OFF();									//РїРѕРґРЅРёРјР°РµРј РЅРѕРіСѓ CS
  b2:	92 b3       	in	r25, 0x12	; 18
  b4:	90 68       	ori	r25, 0x80	; 128
  b6:	92 bb       	out	0x12, r25	; 18
	return dt;									//РІРѕР·РІСЂР°С‰Р°РµРјРѕРµ Р·РЅР°С‡РµРЅРёРµ
}
  b8:	cf 91       	pop	r28
  ba:	08 95       	ret

000000bc <nrf24_write_reg>:

//РџСЂРѕС†РµРґСѓСЂР° Р·Р°РїРёСЃРё СЂРµРіРёСЃС‚СЂР° РІ РјРѕРґСѓР»СЊ
void nrf24_write_reg(uint8_t addr, uint8_t dt)		
{
  bc:	cf 93       	push	r28
  be:	c6 2f       	mov	r28, r22
	addr |= W_REGISTER;					//РІРєР»СЋС‡Р°РµРј Р±РёС‚ Р·Р°РїРёСЃРё РІ Р°РґСЂРµСЃ	
	CSN_ON();										//РїСЂРёР¶РёРјР°РµРј РЅРѕРіСѓ CS Рє Р·РµРјР»Рµ
  c0:	92 b3       	in	r25, 0x12	; 18
  c2:	9f 77       	andi	r25, 0x7F	; 127
  c4:	92 bb       	out	0x12, r25	; 18
	spi_send_byte(addr);				//РѕС‚РїСЂР°РІР»СЏРµРј Р°РґСЂРµСЃ
  c6:	80 62       	ori	r24, 0x20	; 32
  c8:	a3 d2       	rcall	.+1350   	; 0x610 <spi_send_byte>
	spi_send_byte(dt);					//РѕС‚РїСЂР°РІР»СЏРµРј Р·РЅР°С‡РµРЅРёРµ
  ca:	8c 2f       	mov	r24, r28
  cc:	a1 d2       	rcall	.+1346   	; 0x610 <spi_send_byte>
	CSN_OFF();									//РїРѕРґРЅРёРјР°РµРј РЅРѕРіСѓ CS
  ce:	82 b3       	in	r24, 0x12	; 18
  d0:	80 68       	ori	r24, 0x80	; 128
  d2:	82 bb       	out	0x12, r24	; 18
}
  d4:	cf 91       	pop	r28
  d6:	08 95       	ret

000000d8 <nrf24_toggle_features>:

//РџСЂРѕС†РµРґСѓСЂР° Р°РєС‚РёРІР°С†РёРё РґРѕРїРѕР»РЅРёС‚РµР»СЊРЅС‹С… РєРѕРјР°РЅРґ
void nrf24_toggle_features(void)							
{	
	uint8_t dt = ACTIVATE;	//РїРµСЂРµРјРµРЅРЅР°СЏ СЃ РєРѕРјР°РЅРґРѕР№ Р°РєС‚РёРІР°С†РёРё
	CSN_ON();								//РїСЂРёР¶РёРјР°РµРј РЅРѕРіСѓ CS Рє Р·РµРјР»Рµ
  d8:	82 b3       	in	r24, 0x12	; 18
  da:	8f 77       	andi	r24, 0x7F	; 127
  dc:	82 bb       	out	0x12, r24	; 18
	spi_send_byte(dt);			//РѕС‚РїСЂР°РІР»СЏРµРј РєРѕРјР°РЅРґСѓ
  de:	80 e5       	ldi	r24, 0x50	; 80
  e0:	97 d2       	rcall	.+1326   	; 0x610 <spi_send_byte>
	
	uni_delay_us(1);				//Р·Р°Р»РµСЂР¶РєР°
  e2:	61 e0       	ldi	r22, 0x01	; 1
  e4:	70 e0       	ldi	r23, 0x00	; 0
  e6:	80 e0       	ldi	r24, 0x00	; 0
  e8:	90 e0       	ldi	r25, 0x00	; 0
  ea:	c2 df       	rcall	.-124    	; 0x70 <uni_delay_us>
	
	dt = 0x73;							//СЃР»РµРґСѓСЋС‰Р°СЏ РєРѕРјР°РЅРґР°
	spi_send_byte(dt);			//РѕС‚РїСЂР°РІР»СЏРµРј РєРѕРјР°РЅРґСѓ
  ec:	83 e7       	ldi	r24, 0x73	; 115
  ee:	90 d2       	rcall	.+1312   	; 0x610 <spi_send_byte>
	CSN_OFF();							//РїРѕРґРЅРёРјР°РµРј РЅРѕРіСѓ CS
  f0:	82 b3       	in	r24, 0x12	; 18
  f2:	80 68       	ori	r24, 0x80	; 128
  f4:	82 bb       	out	0x12, r24	; 18
  f6:	08 95       	ret

000000f8 <nrf24_read_buf>:
}

//РџСЂРѕС†РµРґСѓСЂР° С‡С‚РµРЅРёСЏ Р±СѓС„РµСЂР°
void nrf24_read_buf(uint8_t addr,uint8_t *p_buf,uint8_t bytes)
{
  f8:	cf 92       	push	r12
  fa:	df 92       	push	r13
  fc:	ff 92       	push	r15
  fe:	0f 93       	push	r16
 100:	1f 93       	push	r17
 102:	cf 93       	push	r28
 104:	df 93       	push	r29
 106:	d8 2f       	mov	r29, r24
 108:	6b 01       	movw	r12, r22
 10a:	f4 2e       	mov	r15, r20
	CSN_ON();										//РїСЂРёР¶РёРјР°РµРј РЅРѕРіСѓ CS Рє Р·РµРјР»Рµ
 10c:	82 b3       	in	r24, 0x12	; 18
 10e:	8f 77       	andi	r24, 0x7F	; 127
 110:	82 bb       	out	0x12, r24	; 18
	spi_send_byte(addr);				//РѕС‚РїСЂР°РІР»СЏРµРј Р°РґСЂРµСЃ
 112:	8d 2f       	mov	r24, r29
 114:	7d d2       	rcall	.+1274   	; 0x610 <spi_send_byte>
	//С†РёРєР» РЅР° РЅСѓР¶РЅРѕРµ РєРѕР»РёС‡РµСЃС‚РІРѕ Р±Р°Р№С‚
	for (uint8_t i = 0; i < bytes; i++) 
 116:	c0 e0       	ldi	r28, 0x00	; 0
 118:	08 c0       	rjmp	.+16     	; 0x12a <nrf24_read_buf+0x32>
	{
		p_buf[i] = spi_change_byte(addr);//РїРѕР»СѓС‡Р°РµРј РѕС‡РµСЂРµРґРЅРѕР№ Р±Р°Р№С‚
 11a:	86 01       	movw	r16, r12
 11c:	0c 0f       	add	r16, r28
 11e:	11 1d       	adc	r17, r1
 120:	8d 2f       	mov	r24, r29
 122:	7a d2       	rcall	.+1268   	; 0x618 <spi_change_byte>
 124:	f8 01       	movw	r30, r16
 126:	80 83       	st	Z, r24
void nrf24_read_buf(uint8_t addr,uint8_t *p_buf,uint8_t bytes)
{
	CSN_ON();										//РїСЂРёР¶РёРјР°РµРј РЅРѕРіСѓ CS Рє Р·РµРјР»Рµ
	spi_send_byte(addr);				//РѕС‚РїСЂР°РІР»СЏРµРј Р°РґСЂРµСЃ
	//С†РёРєР» РЅР° РЅСѓР¶РЅРѕРµ РєРѕР»РёС‡РµСЃС‚РІРѕ Р±Р°Р№С‚
	for (uint8_t i = 0; i < bytes; i++) 
 128:	cf 5f       	subi	r28, 0xFF	; 255
 12a:	cf 15       	cp	r28, r15
 12c:	b0 f3       	brcs	.-20     	; 0x11a <nrf24_read_buf+0x22>
	{
		p_buf[i] = spi_change_byte(addr);//РїРѕР»СѓС‡Р°РµРј РѕС‡РµСЂРµРґРЅРѕР№ Р±Р°Р№С‚
	}
	CSN_OFF();									//РїРѕРґРЅРёРјР°РµРј РЅРѕРіСѓ CS
 12e:	82 b3       	in	r24, 0x12	; 18
 130:	80 68       	ori	r24, 0x80	; 128
 132:	82 bb       	out	0x12, r24	; 18
}
 134:	df 91       	pop	r29
 136:	cf 91       	pop	r28
 138:	1f 91       	pop	r17
 13a:	0f 91       	pop	r16
 13c:	ff 90       	pop	r15
 13e:	df 90       	pop	r13
 140:	cf 90       	pop	r12
 142:	08 95       	ret

00000144 <nrf24_write_buf>:

//РџСЂРѕС†РµРґСѓСЂР° Р·Р°РїРёСЃРё Р±СѓС„РµСЂР°
void nrf24_write_buf(uint8_t addr,uint8_t *p_buf,uint8_t bytes)	
{
 144:	0f 93       	push	r16
 146:	1f 93       	push	r17
 148:	cf 93       	push	r28
 14a:	df 93       	push	r29
 14c:	8b 01       	movw	r16, r22
 14e:	d4 2f       	mov	r29, r20
	addr |= W_REGISTER;					//РІРєР»СЋС‡Р°РµРј Р±РёС‚ Р·Р°РїРёСЃРё РІ Р°РґСЂРµСЃ
	CSN_ON();										//РїСЂРёР¶РёРјР°РµРј РЅРѕРіСѓ CS Рє Р·РµРјР»Рµ
 150:	92 b3       	in	r25, 0x12	; 18
 152:	9f 77       	andi	r25, 0x7F	; 127
 154:	92 bb       	out	0x12, r25	; 18
	spi_send_byte(addr);				//РѕС‚РїСЂР°РІР»СЏРµРј Р°РґСЂРµСЃ
 156:	80 62       	ori	r24, 0x20	; 32
 158:	5b d2       	rcall	.+1206   	; 0x610 <spi_send_byte>
	
	uni_delay_us(1);				//Р·Р°Р»РµСЂР¶РєР°
 15a:	61 e0       	ldi	r22, 0x01	; 1
 15c:	70 e0       	ldi	r23, 0x00	; 0
 15e:	80 e0       	ldi	r24, 0x00	; 0
 160:	90 e0       	ldi	r25, 0x00	; 0
 162:	86 df       	rcall	.-244    	; 0x70 <uni_delay_us>
	
	//С†РёРєР» РЅР° РЅСѓР¶РЅРѕРµ РєРѕР»РёС‡РµСЃС‚РІРѕ Р±Р°Р№С‚
	for (uint8_t i = 0; i < bytes; i++) 
 164:	c0 e0       	ldi	r28, 0x00	; 0
 166:	06 c0       	rjmp	.+12     	; 0x174 <nrf24_write_buf+0x30>
	{
		spi_send_byte(p_buf[i]);		//РѕС‚РїСЂР°РІР»СЏРµРј РѕС‡РµСЂРµРґРЅРѕР№ Р±Р°Р№С‚
 168:	f8 01       	movw	r30, r16
 16a:	ec 0f       	add	r30, r28
 16c:	f1 1d       	adc	r31, r1
 16e:	80 81       	ld	r24, Z
 170:	4f d2       	rcall	.+1182   	; 0x610 <spi_send_byte>
	spi_send_byte(addr);				//РѕС‚РїСЂР°РІР»СЏРµРј Р°РґСЂРµСЃ
	
	uni_delay_us(1);				//Р·Р°Р»РµСЂР¶РєР°
	
	//С†РёРєР» РЅР° РЅСѓР¶РЅРѕРµ РєРѕР»РёС‡РµСЃС‚РІРѕ Р±Р°Р№С‚
	for (uint8_t i = 0; i < bytes; i++) 
 172:	cf 5f       	subi	r28, 0xFF	; 255
 174:	cd 17       	cp	r28, r29
 176:	c0 f3       	brcs	.-16     	; 0x168 <nrf24_write_buf+0x24>
	{
		spi_send_byte(p_buf[i]);		//РѕС‚РїСЂР°РІР»СЏРµРј РѕС‡РµСЂРµРґРЅРѕР№ Р±Р°Р№С‚
	}
	CSN_OFF();										//РїРѕРґРЅРёРјР°РµРј РЅРѕРіСѓ CS
 178:	82 b3       	in	r24, 0x12	; 18
 17a:	80 68       	ori	r24, 0x80	; 128
 17c:	82 bb       	out	0x12, r24	; 18
}
 17e:	df 91       	pop	r29
 180:	cf 91       	pop	r28
 182:	1f 91       	pop	r17
 184:	0f 91       	pop	r16
 186:	08 95       	ret

00000188 <nrf24_flush_rx>:

//РџСЂРѕС†РµРґСѓСЂР° РѕС‡РёСЃС‚РєРё Р±СѓС„РµСЂР° РїСЂРёРµРјР°
void nrf24_flush_rx(void)
{
	uint8_t dt = FLUSH_RX;				//РїРµСЂРµРјРµРЅРЅР°СЏ СЃ РєРѕРјР°РЅРґРѕР№ РѕС‡РёСЃС‚РєРё
	CSN_ON();											//РїСЂРёР¶РёРјР°РµРј РЅРѕРіСѓ CS Рє Р·РµРјР»Рµ
 188:	82 b3       	in	r24, 0x12	; 18
 18a:	8f 77       	andi	r24, 0x7F	; 127
 18c:	82 bb       	out	0x12, r24	; 18
	spi_send_byte(dt);						//РѕС‚РїСЂР°РІРєР° РєРѕРјР°РЅРґС‹
 18e:	82 ee       	ldi	r24, 0xE2	; 226
 190:	3f d2       	rcall	.+1150   	; 0x610 <spi_send_byte>
	
	uni_delay_us(1);				//Р·Р°Р»РµСЂР¶РєР°
 192:	61 e0       	ldi	r22, 0x01	; 1
 194:	70 e0       	ldi	r23, 0x00	; 0
 196:	80 e0       	ldi	r24, 0x00	; 0
 198:	90 e0       	ldi	r25, 0x00	; 0
 19a:	6a df       	rcall	.-300    	; 0x70 <uni_delay_us>
	
	CSN_OFF();										//РїРѕРґРЅРёРјР°РµРј РЅРѕРіСѓ CS
 19c:	82 b3       	in	r24, 0x12	; 18
 19e:	80 68       	ori	r24, 0x80	; 128
 1a0:	82 bb       	out	0x12, r24	; 18
 1a2:	08 95       	ret

000001a4 <nrf24_flush_tx>:

//РџСЂРѕС†РµРґСѓСЂР° РѕС‡РёСЃС‚РєРё Р±СѓС„РµСЂР° РїРµСЂРµРґР°С‡Рё
void nrf24_flush_tx(void)
{
	uint8_t dt = FLUSH_TX;				//РїРµСЂРµРјРµРЅРЅР°СЏ СЃ РєРѕРјР°РЅРґРѕР№ РѕС‡РёСЃС‚РєРё
	CSN_ON();											//РїСЂРёР¶РёРјР°РµРј РЅРѕРіСѓ CS Рє Р·РµРјР»Рµ
 1a4:	82 b3       	in	r24, 0x12	; 18
 1a6:	8f 77       	andi	r24, 0x7F	; 127
 1a8:	82 bb       	out	0x12, r24	; 18
	spi_send_byte(dt);						//РѕС‚РїСЂР°РІРєР° РєРѕРјР°РЅРґС‹
 1aa:	81 ee       	ldi	r24, 0xE1	; 225
 1ac:	31 d2       	rcall	.+1122   	; 0x610 <spi_send_byte>
	
	uni_delay_us(1);				//Р·Р°Р»РµСЂР¶РєР°
 1ae:	61 e0       	ldi	r22, 0x01	; 1
 1b0:	70 e0       	ldi	r23, 0x00	; 0
 1b2:	80 e0       	ldi	r24, 0x00	; 0
 1b4:	90 e0       	ldi	r25, 0x00	; 0
 1b6:	5c df       	rcall	.-328    	; 0x70 <uni_delay_us>
	
	CSN_OFF();										//РїРѕРґРЅРёРјР°РµРј РЅРѕРіСѓ CS
 1b8:	82 b3       	in	r24, 0x12	; 18
 1ba:	80 68       	ori	r24, 0x80	; 128
 1bc:	82 bb       	out	0x12, r24	; 18
 1be:	08 95       	ret

000001c0 <nrf24_rx_mode>:

//РџСЂРѕС†РµРґСѓСЂР° РІРєР»СЋС‡РµРЅРёРµ СЂРµР¶РёРјР° РїСЂРёРµРјРЅРёРєР°
void nrf24_rx_mode(void)
{
	uint8_t regval = 0x00;						//РїРµСЂРµРјРµРЅРЅР°СЏ РґР»СЏ Р·РЅР°С‡РµРЅРёСЏ СЂРµРіРёСЃС‚СЂР°
	regval = nrf24_read_reg(CONFIG);	//СЃРѕС…СЂР°РЅСЏРµРј Р·РЅР°С‡РµРЅРёРµ СЂРµРіРёСЃС‚СЂР° РєРѕРЅС„РёРіСѓСЂР°С†РёРё
 1c0:	80 e0       	ldi	r24, 0x00	; 0
 1c2:	6c df       	rcall	.-296    	; 0x9c <nrf24_read_reg>
	//СЂР°Р·Р±СѓРґРёРј РјРѕРґСѓР»СЊ Рё РїРµСЂРµРІРµРґС‘Рј РµРіРѕ РІ СЂРµР¶РёРј РїСЂРёС‘РјРЅРёРєР°, РІРєР»СЋС‡РёРІ Р±РёС‚С‹ PWR_UP Рё PRIM_RX
	regval |= (1<<PWR_UP)|(1<<PRIM_RX);	
 1c4:	68 2f       	mov	r22, r24
 1c6:	63 60       	ori	r22, 0x03	; 3
	nrf24_write_reg(CONFIG,regval);		//РІРѕР·РІСЂР°С‰Р°РµРј Р·РЅР°С‡РµРЅРёРµ СЂРµРіРёСЃС‚СЂР° СЃС‚Р°С‚СѓСЃР°
 1c8:	80 e0       	ldi	r24, 0x00	; 0
 1ca:	78 df       	rcall	.-272    	; 0xbc <nrf24_write_reg>
	//Р·Р°РїРёСЃС‹РІР°РµРј  Р°РґСЂРµСЃ РїРµСЂРµРґР°С‚С‡РёРєР°
	nrf24_write_buf(TX_ADDR, tx_addr_1, TX_ADR_WIDTH);	
 1cc:	43 e0       	ldi	r20, 0x03	; 3
 1ce:	60 e6       	ldi	r22, 0x60	; 96
 1d0:	70 e0       	ldi	r23, 0x00	; 0
 1d2:	80 e1       	ldi	r24, 0x10	; 16
 1d4:	b7 df       	rcall	.-146    	; 0x144 <nrf24_write_buf>
	//Р·Р°РїРёСЃС‹РІР°РµРј Р°РґСЂРµСЃ РїСЂРёРµРјРЅРёРєР°
	nrf24_write_buf(RX_ADDR_P0, tx_addr_1, TX_ADR_WIDTH);	
 1d6:	43 e0       	ldi	r20, 0x03	; 3
 1d8:	60 e6       	ldi	r22, 0x60	; 96
 1da:	70 e0       	ldi	r23, 0x00	; 0
 1dc:	8a e0       	ldi	r24, 0x0A	; 10
 1de:	b2 df       	rcall	.-156    	; 0x144 <nrf24_write_buf>
	CE_SET();							//РїРѕРґРЅРёРјР°РµРј РЅРѕРіСѓ CE
 1e0:	88 b3       	in	r24, 0x18	; 24
 1e2:	81 60       	ori	r24, 0x01	; 1
 1e4:	88 bb       	out	0x18, r24	; 24
	
	uni_delay_us(150);				//Р·Р°Р»РµСЂР¶РєР°
 1e6:	66 e9       	ldi	r22, 0x96	; 150
 1e8:	70 e0       	ldi	r23, 0x00	; 0
 1ea:	80 e0       	ldi	r24, 0x00	; 0
 1ec:	90 e0       	ldi	r25, 0x00	; 0
 1ee:	40 df       	rcall	.-384    	; 0x70 <uni_delay_us>
	
	//РѕС‡РёСЃС‚РєР° Р±СѓС„РµСЂРѕРІ
	nrf24_flush_rx();
 1f0:	cb df       	rcall	.-106    	; 0x188 <nrf24_flush_rx>
	nrf24_flush_tx();
 1f2:	d8 df       	rcall	.-80     	; 0x1a4 <nrf24_flush_tx>
 1f4:	08 95       	ret

000001f6 <nrf24_tx_mode>:

//РџСЂРѕС†РµРґСѓСЂР° РІРєР»СЋС‡РµРЅРёСЏ СЂРµР¶РёРјР° РїРµСЂРµРґР°С‚С‡РёРєР°
void nrf24_tx_mode(void)
{
	//Р·Р°РїРёСЃС‹РІР°РµРј Р°РґСЂРµСЃ РїРµСЂРµРґР°С‚С‡РёРєР°
	nrf24_write_buf(TX_ADDR, tx_addr_0, TX_ADR_WIDTH);		
 1f6:	43 e0       	ldi	r20, 0x03	; 3
 1f8:	63 e6       	ldi	r22, 0x63	; 99
 1fa:	70 e0       	ldi	r23, 0x00	; 0
 1fc:	80 e1       	ldi	r24, 0x10	; 16
 1fe:	a2 df       	rcall	.-188    	; 0x144 <nrf24_write_buf>
	//Р·Р°РїРёСЃС‹РІР°РµРј Р°РґСЂРµСЃ РїСЂРёРµРјРЅРёРєР°
	nrf24_write_buf(RX_ADDR_P0, tx_addr_0, TX_ADR_WIDTH);	
 200:	43 e0       	ldi	r20, 0x03	; 3
 202:	63 e6       	ldi	r22, 0x63	; 99
 204:	70 e0       	ldi	r23, 0x00	; 0
 206:	8a e0       	ldi	r24, 0x0A	; 10
 208:	9d df       	rcall	.-198    	; 0x144 <nrf24_write_buf>
	CE_RESET();							//РѕРїСѓСЃРєР°РµРј РЅРѕРіСѓ CE
 20a:	88 b3       	in	r24, 0x18	; 24
 20c:	8e 7f       	andi	r24, 0xFE	; 254
 20e:	88 bb       	out	0x18, r24	; 24
	//РѕС‡РёС‰Р°РµРј РѕР±Р° Р±СѓС„РµСЂР°
	nrf24_flush_rx();
 210:	bb df       	rcall	.-138    	; 0x188 <nrf24_flush_rx>
	nrf24_flush_tx();
 212:	c8 df       	rcall	.-112    	; 0x1a4 <nrf24_flush_tx>
 214:	08 95       	ret

00000216 <nrf24_transmit>:
}

//РџСЂРѕС†РµРґСѓСЂР° РїРµСЂРµРґР°С‡Рё РґР°РЅРЅС‹С… РІ РјРѕРґСѓР»СЊ
void nrf24_transmit(uint8_t addr,uint8_t *p_buf,uint8_t bytes)
{
 216:	0f 93       	push	r16
 218:	1f 93       	push	r17
 21a:	cf 93       	push	r28
 21c:	df 93       	push	r29
 21e:	8b 01       	movw	r16, r22
 220:	d4 2f       	mov	r29, r20
	CE_RESET();						//РѕРїСѓСЃРєР°РµРј РЅРѕРіСѓ CE
 222:	98 b3       	in	r25, 0x18	; 24
 224:	9e 7f       	andi	r25, 0xFE	; 254
 226:	98 bb       	out	0x18, r25	; 24
	CSN_ON();							//РїСЂРёР¶РёРјР°РµРј РЅРѕРіСѓ CS Рє Р·РµРјР»Рµ
 228:	92 b3       	in	r25, 0x12	; 18
 22a:	9f 77       	andi	r25, 0x7F	; 127
 22c:	92 bb       	out	0x12, r25	; 18
	spi_send_byte(addr);	//РѕС‚РїСЂР°РІР»СЏРµРј Р°РґСЂРµСЃ
 22e:	f0 d1       	rcall	.+992    	; 0x610 <spi_send_byte>
	
	uni_delay_us(1);				//Р·Р°Р»РµСЂР¶РєР°
 230:	61 e0       	ldi	r22, 0x01	; 1
 232:	70 e0       	ldi	r23, 0x00	; 0
 234:	80 e0       	ldi	r24, 0x00	; 0
 236:	90 e0       	ldi	r25, 0x00	; 0
 238:	1b df       	rcall	.-458    	; 0x70 <uni_delay_us>
	
	//С†РёРєР» РЅР° РЅСѓР¶РЅРѕРµ РєРѕР»РёС‡РµСЃС‚РІРѕ Р±Р°Р№С‚
	for (uint8_t i = 0; i < bytes; i++) 
 23a:	c0 e0       	ldi	r28, 0x00	; 0
 23c:	06 c0       	rjmp	.+12     	; 0x24a <nrf24_transmit+0x34>
	{
		spi_send_byte(p_buf[i]);	//РѕС‚РїСЂР°РІР»СЏРµРј РѕС‡РµСЂРµРґРЅРѕР№ Р±Р°Р№С‚
 23e:	f8 01       	movw	r30, r16
 240:	ec 0f       	add	r30, r28
 242:	f1 1d       	adc	r31, r1
 244:	80 81       	ld	r24, Z
 246:	e4 d1       	rcall	.+968    	; 0x610 <spi_send_byte>
	spi_send_byte(addr);	//РѕС‚РїСЂР°РІР»СЏРµРј Р°РґСЂРµСЃ
	
	uni_delay_us(1);				//Р·Р°Р»РµСЂР¶РєР°
	
	//С†РёРєР» РЅР° РЅСѓР¶РЅРѕРµ РєРѕР»РёС‡РµСЃС‚РІРѕ Р±Р°Р№С‚
	for (uint8_t i = 0; i < bytes; i++) 
 248:	cf 5f       	subi	r28, 0xFF	; 255
 24a:	cd 17       	cp	r28, r29
 24c:	c0 f3       	brcs	.-16     	; 0x23e <nrf24_transmit+0x28>
	{
		spi_send_byte(p_buf[i]);	//РѕС‚РїСЂР°РІР»СЏРµРј РѕС‡РµСЂРµРґРЅРѕР№ Р±Р°Р№С‚
	}
	CSN_OFF();						//РїРѕРґРЅРёРјР°РµРј РЅРѕРіСѓ CS
 24e:	82 b3       	in	r24, 0x12	; 18
 250:	80 68       	ori	r24, 0x80	; 128
 252:	82 bb       	out	0x12, r24	; 18
	CE_SET();							//РџРѕРґРЅРёРјР°РµРј РЅРѕРіСѓ CE
 254:	88 b3       	in	r24, 0x18	; 24
 256:	81 60       	ori	r24, 0x01	; 1
 258:	88 bb       	out	0x18, r24	; 24
}
 25a:	df 91       	pop	r29
 25c:	cf 91       	pop	r28
 25e:	1f 91       	pop	r17
 260:	0f 91       	pop	r16
 262:	08 95       	ret

00000264 <nrf24_send>:

//РџСЂРѕС†РµРґСѓСЂР° РѕС‚РїСЂР°РІРєРё РґР°РЅРЅС‹С… РІ СЌС„РёСЂ
void nrf24_send(uint8_t *p_buf)
{
 264:	cf 93       	push	r28
 266:	df 93       	push	r29
 268:	ec 01       	movw	r28, r24
	interrupt_off();
 26a:	f9 de       	rcall	.-526    	; 0x5e <interrupt_off>
	
	uint8_t regval = 0x00;						//РїРµСЂРµРјРµРЅРЅР°СЏ РґР»СЏ РѕС‚РїСЂР°РІРєРё РІ РєРѕРЅС„РёРіСѓСЂР°С†РёРѕРЅРЅС‹Р№ СЂРµРіРёСЃС‚СЂ
	nrf24_tx_mode();									//РІРєР»СЋС‡Р°РµРј СЂРµР¶РёРј РїРµСЂРµРґР°С‡Рё
 26c:	c4 df       	rcall	.-120    	; 0x1f6 <nrf24_tx_mode>
	regval = nrf24_read_reg(CONFIG);	//СЃРѕС…СЂР°РЅСЏРµРј Р·РЅР°С‡РµРЅРёСЏ РєРѕРЅС„РёРіСѓСЂР°С†РёРѕРЅРЅРѕРіРѕ СЂРµРіРёСЃС‚Р°
 26e:	80 e0       	ldi	r24, 0x00	; 0
 270:	15 df       	rcall	.-470    	; 0x9c <nrf24_read_reg>
 272:	8e 7f       	andi	r24, 0xFE	; 254
	//РµСЃР»Рё РјРѕРґСѓР»СЊ СѓС€РµР» РІ СЃРїСЏС‰РёР№ СЂРµР¶РёРј, С‚Рѕ СЂР°Р·Р±СѓРґРёРј РµРіРѕ, РІРєР»СЋС‡РёРІ Р±РёС‚ PWR_UP Рё РІС‹РєР»СЋС‡РёРІ PRIM_RX
	regval |= (1<<PWR_UP);					
	regval &= ~(1<<PRIM_RX);
 274:	68 2f       	mov	r22, r24
 276:	62 60       	ori	r22, 0x02	; 2
	nrf24_write_reg(CONFIG, regval);	//Р·Р°РїРёСЃС‹РІР°РµРј РЅРѕРІРѕРµ Р·РЅР°С‡РµРЅРёРµ РєРѕРЅС„РёРіСѓСЂР°С†РёРѕРЅРЅРѕРіРѕ СЂРµРіРёСЃС‚СЂР°
 278:	80 e0       	ldi	r24, 0x00	; 0
 27a:	20 df       	rcall	.-448    	; 0xbc <nrf24_write_reg>
	
	uni_delay_us(150);				//Р·Р°Р»РµСЂР¶РєР°
 27c:	66 e9       	ldi	r22, 0x96	; 150
 27e:	70 e0       	ldi	r23, 0x00	; 0
 280:	80 e0       	ldi	r24, 0x00	; 0
 282:	90 e0       	ldi	r25, 0x00	; 0
 284:	f5 de       	rcall	.-534    	; 0x70 <uni_delay_us>
	
	nrf24_transmit(WR_TX_PLOAD, p_buf, TX_PLOAD_WIDTH);//РѕС‚РїСЂР°РІРєР° РґР°РЅРЅС‹С…
 286:	40 e2       	ldi	r20, 0x20	; 32
 288:	be 01       	movw	r22, r28
 28a:	80 ea       	ldi	r24, 0xA0	; 160
 28c:	c4 df       	rcall	.-120    	; 0x216 <nrf24_transmit>
	CE_SET();									//РїРѕРґРЅРёРјР°РµРј РЅРѕРіСѓ CE
 28e:	88 b3       	in	r24, 0x18	; 24
 290:	81 60       	ori	r24, 0x01	; 1
 292:	88 bb       	out	0x18, r24	; 24
	
	uni_delay_us(15);				//Р·Р°Р»РµСЂР¶РєР°
 294:	6f e0       	ldi	r22, 0x0F	; 15
 296:	70 e0       	ldi	r23, 0x00	; 0
 298:	80 e0       	ldi	r24, 0x00	; 0
 29a:	90 e0       	ldi	r25, 0x00	; 0
 29c:	e9 de       	rcall	.-558    	; 0x70 <uni_delay_us>
	
	CE_RESET();								//РѕРїСѓСЃРєР°РµРј РЅРѕРіСѓ CE
 29e:	88 b3       	in	r24, 0x18	; 24
 2a0:	8e 7f       	andi	r24, 0xFE	; 254
 2a2:	88 bb       	out	0x18, r24	; 24
	
	interrupt_on();
 2a4:	e1 de       	rcall	.-574    	; 0x68 <interrupt_on>
}
 2a6:	df 91       	pop	r29
 2a8:	cf 91       	pop	r28
 2aa:	08 95       	ret

000002ac <nrf24_pins_init>:

//РџСЂРѕС†РµРґСѓСЂР° РёРЅРёС†РёР°Р»РёР·Р°С†РёРё РїРёРЅРѕРІ, РїРѕРґРєР»СЋС‡РµРЅРЅС‹С… Рє СЂР°РґРёРѕРјРѕРґСѓР»СЋ
void nrf24_pins_init(void)
{
	#ifdef ATMEGA8
	CE_DDR |= 1<<CE_DD;					//CE РЅР° РІС‹С…РѕРґ
 2ac:	87 b3       	in	r24, 0x17	; 23
 2ae:	81 60       	ori	r24, 0x01	; 1
 2b0:	87 bb       	out	0x17, r24	; 23
	CE_PORT |= 1<<CE_PIN;				//РІС‹СЃРѕРєРёР№ СѓСЂРѕРІРµРЅСЊ РЅР° CE
 2b2:	88 b3       	in	r24, 0x18	; 24
 2b4:	81 60       	ori	r24, 0x01	; 1
 2b6:	88 bb       	out	0x18, r24	; 24
	
	CSN_DDR |= 1<<CSN_DD;				//CSN РЅР° РІС‹С…РѕРґ
 2b8:	81 b3       	in	r24, 0x11	; 17
 2ba:	80 68       	ori	r24, 0x80	; 128
 2bc:	81 bb       	out	0x11, r24	; 17
	CSN_PORT |= 1<<CSN_PIN;				//РІС‹СЃРѕРєРёР№ СѓСЂРѕРІРµРЅСЊ РЅР° CSN
 2be:	82 b3       	in	r24, 0x12	; 18
 2c0:	80 68       	ori	r24, 0x80	; 128
 2c2:	82 bb       	out	0x12, r24	; 18
	
	IRQ_DDR |= 0<<IRQ_DD;				//IRQ РЅР° РІС…РѕРґ
 2c4:	81 b3       	in	r24, 0x11	; 17
 2c6:	81 bb       	out	0x11, r24	; 17
	IRQ_PORT |= 0<<IRQ_PIN;				//РѕС‚РєР»СЋС‡Р°РµРј РІРЅСѓС‚СЂРµРЅРЅРёР№ РїСѓР»Р»Р°Рї
 2c8:	82 b3       	in	r24, 0x12	; 18
 2ca:	82 bb       	out	0x12, r24	; 18
 2cc:	08 95       	ret

000002ce <nrf24_init>:
}

//РџСЂРѕС†РµРґСѓСЂР° РёРЅРёС†РёР°Р»РёР·Р°С†РёРё РјРѕРґСѓР»СЏ
void nrf24_init(void)
{
	nrf24_pins_init();				//РёРЅРёС†РёР°Р»РёР·РёСЂСѓРµРј РїРёРЅС‹
 2ce:	ee df       	rcall	.-36     	; 0x2ac <nrf24_pins_init>
	CE_RESET();								//РѕРїСѓСЃРєР°РµРј Рє Р·РµРјР»Рµ РІС‹РІРѕРґ CE
 2d0:	88 b3       	in	r24, 0x18	; 24
 2d2:	8e 7f       	andi	r24, 0xFE	; 254
 2d4:	88 bb       	out	0x18, r24	; 24
	
	uni_delay_us(5000);				//Р·Р°Р»РµСЂР¶РєР°
 2d6:	68 e8       	ldi	r22, 0x88	; 136
 2d8:	73 e1       	ldi	r23, 0x13	; 19
 2da:	80 e0       	ldi	r24, 0x00	; 0
 2dc:	90 e0       	ldi	r25, 0x00	; 0
 2de:	c8 de       	rcall	.-624    	; 0x70 <uni_delay_us>
	
	//Р·Р°РїРёСЃС‹РІР°РµРј РєРѕРЅС„РёРіСѓСЂР°С†РёРѕРЅРЅС‹Р№ Р±Р°Р№С‚, 
	//СѓСЃС‚Р°РЅР°РІР»РёРІР°РµРј Р±РёС‚ PWR_UP bit, РІРєР»СЋС‡Р°РµРј CRC(1 Р±Р°Р№С‚) &Prim_RX:0
	nrf24_write_reg(CONFIG, 0x0a);		
 2e0:	6a e0       	ldi	r22, 0x0A	; 10
 2e2:	80 e0       	ldi	r24, 0x00	; 0
 2e4:	eb de       	rcall	.-554    	; 0xbc <nrf24_write_reg>
	
	uni_delay_us(5000);				//Р·Р°Р»РµСЂР¶РєР°
 2e6:	68 e8       	ldi	r22, 0x88	; 136
 2e8:	73 e1       	ldi	r23, 0x13	; 19
 2ea:	80 e0       	ldi	r24, 0x00	; 0
 2ec:	90 e0       	ldi	r25, 0x00	; 0
 2ee:	c0 de       	rcall	.-640    	; 0x70 <uni_delay_us>
	
	nrf24_write_reg(EN_AA, 0x00);					//РѕС‚РєР»СЋС‡Р°РµРј Р°РІС‚РѕРїРѕРґС‚РІРµСЂР¶РґРµРЅРёРµ
 2f0:	60 e0       	ldi	r22, 0x00	; 0
 2f2:	81 e0       	ldi	r24, 0x01	; 1
 2f4:	e3 de       	rcall	.-570    	; 0xbc <nrf24_write_reg>
	nrf24_write_reg(EN_RXADDR, 0x01);			//СЂР°Р·СЂРµС€Р°РµРј Pipe0
 2f6:	61 e0       	ldi	r22, 0x01	; 1
 2f8:	82 e0       	ldi	r24, 0x02	; 2
 2fa:	e0 de       	rcall	.-576    	; 0xbc <nrf24_write_reg>
	nrf24_write_reg(SETUP_AW, 0x01);			//СѓСЃС‚Р°РЅР°РІР»РёРІР°РµРј СЂР°Р·РјРµСЂ Р°РґСЂРµСЃР° 3 Р±Р°Р№С‚Р°
 2fc:	61 e0       	ldi	r22, 0x01	; 1
 2fe:	83 e0       	ldi	r24, 0x03	; 3
 300:	dd de       	rcall	.-582    	; 0xbc <nrf24_write_reg>
	nrf24_write_reg(SETUP_RETR, 0x00);		//СѓСЃС‚Р°РЅР°РІР»РёРІР°РµРј РїРµСЂРёРѕРґ Р°РІС‚Рѕ СЂРµС‚СЂР°РЅСЃР»СЏС†РёРё 1500РјРєСЃ, 15 РїРѕРїС‹С‚РѕРє
 302:	60 e0       	ldi	r22, 0x00	; 0
 304:	84 e0       	ldi	r24, 0x04	; 4
 306:	da de       	rcall	.-588    	; 0xbc <nrf24_write_reg>
	nrf24_toggle_features();							//Р°РєС‚РёРІРёСЂСѓРµРј РґРѕРїРѕР»РЅРёС‚РµР»СЊРЅС‹Рµ РєРѕРјР°РЅРґС‹
 308:	e7 de       	rcall	.-562    	; 0xd8 <nrf24_toggle_features>
	nrf24_write_reg(FEATURE, 0x07);				//СѓСЃС‚Р°РЅР°РІР»РёРІР°РµРј СЃС‚Р°РЅРґР°СЂС‚РЅС‹Рµ Р·РЅР°С‡РµРЅРёСЏ СЂРµРіРёСЃС‚СЂР° FEATURE 
 30a:	67 e0       	ldi	r22, 0x07	; 7
 30c:	8d e1       	ldi	r24, 0x1D	; 29
 30e:	d6 de       	rcall	.-596    	; 0xbc <nrf24_write_reg>
	nrf24_write_reg(DYNPD, 0);						//РѕС‚РєР»СЋС‡Р°РµРј РґРёРЅР°РјРёС‡РµСЃРєРёР№ СЂР°Р·РјРµСЂ РїРѕР»РµР·РЅРѕР№ РЅР°РіСЂСѓР·РєРё
 310:	60 e0       	ldi	r22, 0x00	; 0
 312:	8c e1       	ldi	r24, 0x1C	; 28
 314:	d3 de       	rcall	.-602    	; 0xbc <nrf24_write_reg>
	nrf24_write_reg(STATUS, 0x70);				//РѕРїСѓСЃРєР°РµРј С„Р»Р°Рі РїСЂРµСЂС‹РІР°РЅРёСЏ
 316:	60 e7       	ldi	r22, 0x70	; 112
 318:	87 e0       	ldi	r24, 0x07	; 7
 31a:	d0 de       	rcall	.-608    	; 0xbc <nrf24_write_reg>
	nrf24_write_reg(RF_CH, CHANNEL);			//СѓСЃС‚Р°РЅР°РІР»РёРІР°РµРј РєР°РЅР°Р»
 31c:	61 e5       	ldi	r22, 0x51	; 81
 31e:	85 e0       	ldi	r24, 0x05	; 5
 320:	cd de       	rcall	.-614    	; 0xbc <nrf24_write_reg>
	nrf24_write_reg(RF_SETUP, MAX_POWER);	//СѓСЃС‚Р°РЅР°РІР»РёРІР°РµРј РјРѕС‰РЅРѕСЃС‚СЊ Рё СЃРєРѕСЂРѕСЃС‚СЊ РїРµСЂРµРґР°С‡Рё
 322:	66 e0       	ldi	r22, 0x06	; 6
 324:	86 e0       	ldi	r24, 0x06	; 6
 326:	ca de       	rcall	.-620    	; 0xbc <nrf24_write_reg>
	nrf24_write_buf(TX_ADDR, tx_addr_0, TX_ADR_WIDTH);		//Р·Р°РїРёСЃСЊ Р°РґСЂРµСЃР° РїРµСЂРµРґР°С‡Рё
 328:	43 e0       	ldi	r20, 0x03	; 3
 32a:	63 e6       	ldi	r22, 0x63	; 99
 32c:	70 e0       	ldi	r23, 0x00	; 0
 32e:	80 e1       	ldi	r24, 0x10	; 16
 330:	09 df       	rcall	.-494    	; 0x144 <nrf24_write_buf>
	nrf24_write_buf(RX_ADDR_P1, tx_addr_0, TX_ADR_WIDTH);	//Р·Р°РїРёСЃСЊ Р°РґСЂРµСЃР° РїСЂРёРµРјР°
 332:	43 e0       	ldi	r20, 0x03	; 3
 334:	63 e6       	ldi	r22, 0x63	; 99
 336:	70 e0       	ldi	r23, 0x00	; 0
 338:	8b e0       	ldi	r24, 0x0B	; 11
 33a:	04 df       	rcall	.-504    	; 0x144 <nrf24_write_buf>
	nrf24_write_reg(RX_PW_P0, TX_PLOAD_WIDTH); //СѓСЃС‚Р°РЅР°РІР»РёРІР°РµРј С‡РёСЃР»Рѕ Р±Р°Р№С‚ РїРѕР»РµР·РЅРѕР№ РЅР°РіСЂСѓР·РєРё
 33c:	60 e2       	ldi	r22, 0x20	; 32
 33e:	81 e1       	ldi	r24, 0x11	; 17
 340:	bd de       	rcall	.-646    	; 0xbc <nrf24_write_reg>
	nrf24_rx_mode();					//РїРѕРєР° СѓС…РѕРґРёРј РІ СЂРµР¶РёРј РїСЂРёС‘РјРЅРёРєР°
 342:	3e df       	rcall	.-388    	; 0x1c0 <nrf24_rx_mode>
 344:	08 95       	ret

00000346 <irq_callback>:
}

//РџСЂРѕС†РµРґСѓСЂР° РѕР±СЂР°Р±РѕС‚РєРё РїСЂРµСЂС‹РІР°РЅРёСЏ
void irq_callback(void)
{
 346:	cf 93       	push	r28
	interrupt_off();
 348:	8a de       	rcall	.-748    	; 0x5e <interrupt_off>
	
	uint8_t status = 0x01;				//РїРµСЂРµРјРµРЅРЅР°СЏ СЃС‚Р°С‚СѓСЃР°
	
	uni_delay_us(10);				//Р·Р°Р»РµСЂР¶РєР°
 34a:	6a e0       	ldi	r22, 0x0A	; 10
 34c:	70 e0       	ldi	r23, 0x00	; 0
 34e:	80 e0       	ldi	r24, 0x00	; 0
 350:	90 e0       	ldi	r25, 0x00	; 0
 352:	8e de       	rcall	.-740    	; 0x70 <uni_delay_us>
	
	status = nrf24_read_reg(STATUS);	//С‡РёС‚Р°РµРј Р·РЅР°С‡РµРЅРёСЏ СЂРµРіРёСЃС‚СЂР° СЃС‚Р°С‚СѓСЃР°
 354:	87 e0       	ldi	r24, 0x07	; 7
 356:	a2 de       	rcall	.-700    	; 0x9c <nrf24_read_reg>
 358:	c8 2f       	mov	r28, r24
	if (status & RX_DR)								//РµСЃР»Рё РµСЃС‚СЊ РґР°РЅРЅС‹Рµ РЅР° РїСЂРёРµРј
 35a:	86 ff       	sbrs	r24, 6
 35c:	0b c0       	rjmp	.+22     	; 0x374 <irq_callback+0x2e>
	{
		nrf24_read_buf(RD_RX_PLOAD, rx_buf, TX_PLOAD_WIDTH);	//С‡С‚РµРЅРёРµ Р±СѓС„РµСЂР°
 35e:	40 e2       	ldi	r20, 0x20	; 32
 360:	6c e4       	ldi	r22, 0x4C	; 76
 362:	71 e0       	ldi	r23, 0x01	; 1
 364:	81 e6       	ldi	r24, 0x61	; 97
 366:	c8 de       	rcall	.-624    	; 0xf8 <nrf24_read_buf>
		nrf24_write_reg(STATUS, 0x40);	//Р·Р°РїРёСЃСЊ РІ СЂРµРіРёСЃС‚СЂ СЃС‚Р°С‚СѓСЃР° 1 РІ С€РµСЃС‚РѕР№ Р±РёС‚, РѕР±РЅСѓР»РµРЅРёРµ РѕСЃС‚Р°Р»СЊРЅС‹С…
 368:	60 e4       	ldi	r22, 0x40	; 64
 36a:	87 e0       	ldi	r24, 0x07	; 7
 36c:	a7 de       	rcall	.-690    	; 0xbc <nrf24_write_reg>
		f_rx = 1;												//РїРѕРґРЅРёРјР°РµРј С„Р»Р°Рі РїСЂРёРµРјР°
 36e:	81 e0       	ldi	r24, 0x01	; 1
 370:	80 93 2b 01 	sts	0x012B, r24	; 0x80012b <f_rx>
	}
	if (status & TX_DS)								//РµСЃР»Рё РґР°РЅРЅС‹Рµ СѓСЃРїРµС€РЅРѕ РѕС‚РїСЂР°РІР»РµРЅС‹
 374:	c5 ff       	sbrs	r28, 5
 376:	08 c0       	rjmp	.+16     	; 0x388 <irq_callback+0x42>
	{
		nrf24_write_reg(STATUS, 0x20);	//РѕС‡РёС‰Р°РµРј РІСЃРµ Р±РёС‚С‹ РєСЂРѕРјРµ РїСЏС‚РѕРіРѕ
 378:	60 e2       	ldi	r22, 0x20	; 32
 37a:	87 e0       	ldi	r24, 0x07	; 7
 37c:	9f de       	rcall	.-706    	; 0xbc <nrf24_write_reg>
		nrf24_rx_mode();								//РїРµСЂРµС…РѕРґРёРј РІ СЂРµР¶РёРј РїСЂРёРµРјР°
 37e:	20 df       	rcall	.-448    	; 0x1c0 <nrf24_rx_mode>
		f_tx = 1;												//РїРѕРґРЅРёРјР°РµРј С„Р»Р°Рі РїРµСЂРµРґР°С‡Рё
 380:	81 e0       	ldi	r24, 0x01	; 1
 382:	80 93 2a 01 	sts	0x012A, r24	; 0x80012a <__data_end>
 386:	07 c0       	rjmp	.+14     	; 0x396 <irq_callback+0x50>
	}
	else if (status & MAX_RT)					//РµСЃР»Рё РїСЂРµРІС‹С€РµРЅРёРµ РєРѕР»РёС‡РµСЃС‚РІР° РїРѕРїС‹С‚РѕРє РѕС‚РїСЂР°РІРєРё
 388:	c4 ff       	sbrs	r28, 4
 38a:	05 c0       	rjmp	.+10     	; 0x396 <irq_callback+0x50>
	{
		nrf24_write_reg(STATUS, 0x10);	//РѕРґРЅСѓР»РµРЅРёРµ РІСЃРµС… РѕСЃС‚Р°Р»СЊРЅС‹С… Р±РёС‚РѕРІ, РєСЂРѕРјРµ 4РіРѕ
 38c:	60 e1       	ldi	r22, 0x10	; 16
 38e:	87 e0       	ldi	r24, 0x07	; 7
 390:	95 de       	rcall	.-726    	; 0xbc <nrf24_write_reg>
		nrf24_flush_tx();								//РѕС‡РёСЃС‚РєР° Р±СѓС„РµСЂР° РѕС‚РїСЂР°РІРєРё
 392:	08 df       	rcall	.-496    	; 0x1a4 <nrf24_flush_tx>
		nrf24_rx_mode();								//РїРµСЂРµС…РѕРґРёРј РІ СЂРµР¶РёРј РїСЂРёРµРјР°
 394:	15 df       	rcall	.-470    	; 0x1c0 <nrf24_rx_mode>
	}
	
	interrupt_on();
 396:	68 de       	rcall	.-816    	; 0x68 <interrupt_on>

}
 398:	cf 91       	pop	r28
 39a:	08 95       	ret

0000039c <gpio_init>:
extern uint8_t rx_buf[TX_PLOAD_WIDTH];	//буфер приема

//Процедура инициализации портов
void gpio_init(void)
{
	LED_DDR |= 1<<LED_DD;				//пин светодиода на выход
 39c:	81 b3       	in	r24, 0x11	; 17
 39e:	80 64       	ori	r24, 0x40	; 64
 3a0:	81 bb       	out	0x11, r24	; 17
	LED_PORT |= 0<<LED_PIN;				//низкий уровень на выводе светодиода
 3a2:	82 b3       	in	r24, 0x12	; 18
 3a4:	82 bb       	out	0x12, r24	; 18
 3a6:	08 95       	ret

000003a8 <interrupt_init>:
//Процедура инициализации прерываний
void interrupt_init(void)
{
	//включаем внешнее прерывание INT0 по спаду
	#ifdef ATMEGA8
	GICR|=(0<<INT1) | (1<<INT0);
 3a8:	8b b7       	in	r24, 0x3b	; 59
 3aa:	80 64       	ori	r24, 0x40	; 64
 3ac:	8b bf       	out	0x3b, r24	; 59
	MCUCR=(0<<ISC11) | (0<<ISC10) | (1<<ISC01) | (0<<ISC00);
 3ae:	82 e0       	ldi	r24, 0x02	; 2
 3b0:	85 bf       	out	0x35, r24	; 53
	GIFR=(0<<INTF1) | (1<<INTF0);
 3b2:	80 e4       	ldi	r24, 0x40	; 64
 3b4:	8a bf       	out	0x3a, r24	; 58
 3b6:	08 95       	ret

000003b8 <blink_led>:
}

//Процедура моргания светодиодом
void blink_led(uint8_t blink_counter)
{
	while (blink_counter)			//пока счетчик не равен 0
 3b8:	19 c0       	rjmp	.+50     	; 0x3ec <blink_led+0x34>
	{
		LED_ON();					//включаем светодиод
 3ba:	92 b3       	in	r25, 0x12	; 18
 3bc:	90 64       	ori	r25, 0x40	; 64
 3be:	92 bb       	out	0x12, r25	; 18
	#else
		//round up by default
		__ticks_dc = (uint32_t)(ceil(fabs(__tmp)));
	#endif

	__builtin_avr_delay_cycles(__ticks_dc);
 3c0:	2f e7       	ldi	r18, 0x7F	; 127
 3c2:	38 e3       	ldi	r19, 0x38	; 56
 3c4:	91 e0       	ldi	r25, 0x01	; 1
 3c6:	21 50       	subi	r18, 0x01	; 1
 3c8:	30 40       	sbci	r19, 0x00	; 0
 3ca:	90 40       	sbci	r25, 0x00	; 0
 3cc:	e1 f7       	brne	.-8      	; 0x3c6 <blink_led+0xe>
 3ce:	00 c0       	rjmp	.+0      	; 0x3d0 <blink_led+0x18>
 3d0:	00 00       	nop
		_delay_ms(50);				//ждем
		LED_OFF();					//выключаем светодиод
 3d2:	92 b3       	in	r25, 0x12	; 18
 3d4:	9f 7b       	andi	r25, 0xBF	; 191
 3d6:	92 bb       	out	0x12, r25	; 18
 3d8:	2f e7       	ldi	r18, 0x7F	; 127
 3da:	38 e3       	ldi	r19, 0x38	; 56
 3dc:	91 e0       	ldi	r25, 0x01	; 1
 3de:	21 50       	subi	r18, 0x01	; 1
 3e0:	30 40       	sbci	r19, 0x00	; 0
 3e2:	90 40       	sbci	r25, 0x00	; 0
 3e4:	e1 f7       	brne	.-8      	; 0x3de <blink_led+0x26>
 3e6:	00 c0       	rjmp	.+0      	; 0x3e8 <blink_led+0x30>
 3e8:	00 00       	nop
		_delay_ms(50);				//ждем
		blink_counter--;			//декрементируем счетчик
 3ea:	81 50       	subi	r24, 0x01	; 1
}

//Процедура моргания светодиодом
void blink_led(uint8_t blink_counter)
{
	while (blink_counter)			//пока счетчик не равен 0
 3ec:	81 11       	cpse	r24, r1
 3ee:	e5 cf       	rjmp	.-54     	; 0x3ba <blink_led+0x2>
		_delay_ms(50);				//ждем
		LED_OFF();					//выключаем светодиод
		_delay_ms(50);				//ждем
		blink_counter--;			//декрементируем счетчик
	}
}
 3f0:	08 95       	ret

000003f2 <nrf24l01_receive>:

//Процедура приема радиомодуля
void nrf24l01_receive(void)
{
	if(f_rx)	//если флаг приема поднят (флаг поднимается по внешнему прерыванию от радиомодуля)
 3f2:	80 91 2b 01 	lds	r24, 0x012B	; 0x80012b <f_rx>
 3f6:	88 23       	and	r24, r24
 3f8:	59 f1       	breq	.+86     	; 0x450 <__DATA_REGION_LENGTH__+0x50>
	{
		if (rx_buf[0] == OUR_ADDR)	//если первый принятый байт совпадает с адресом устройства
 3fa:	80 91 4c 01 	lds	r24, 0x014C	; 0x80014c <rx_buf>
 3fe:	81 11       	cpse	r24, r1
 400:	25 c0       	rjmp	.+74     	; 0x44c <__DATA_REGION_LENGTH__+0x4c>
			
			//тут можно прописать действия ведомого устройства при получении адресованного ему запроса
			//в данном примере мы формируем и отправляем ответ на запрос, а также сигнализируем об этом событии
			//ответ содержит адрес устройства и байт данных, но может содержать другую информацию размером до 32 байт
			
			tx_buf[0] = OUR_ADDR;	//записываем в первый байт буфера адрес
 402:	ec e2       	ldi	r30, 0x2C	; 44
 404:	f1 e0       	ldi	r31, 0x01	; 1
 406:	10 82       	st	Z, r1
			tx_buf[1] = counter;	//записываем во второй байт буфера значение счетчика
 408:	80 91 6c 01 	lds	r24, 0x016C	; 0x80016c <counter>
 40c:	81 83       	std	Z+1, r24	; 0x01
			nrf24_send(tx_buf);		//отправляем посылку в эфир
 40e:	cf 01       	movw	r24, r30
 410:	29 df       	rcall	.-430    	; 0x264 <nrf24_send>
			blink_led(2);			//моргаем светодиодом
 412:	82 e0       	ldi	r24, 0x02	; 2
 414:	d1 df       	rcall	.-94     	; 0x3b8 <blink_led>
			sprintf(str,"Отправлен ответ на запрос №%d\r\n", counter);	//формируем строку для вывода в порт
 416:	80 91 6c 01 	lds	r24, 0x016C	; 0x80016c <counter>
 41a:	1f 92       	push	r1
 41c:	8f 93       	push	r24
 41e:	86 e6       	ldi	r24, 0x66	; 102
 420:	90 e0       	ldi	r25, 0x00	; 0
 422:	9f 93       	push	r25
 424:	8f 93       	push	r24
 426:	8d e6       	ldi	r24, 0x6D	; 109
 428:	91 e0       	ldi	r25, 0x01	; 1
 42a:	9f 93       	push	r25
 42c:	8f 93       	push	r24
 42e:	4c d1       	rcall	.+664    	; 0x6c8 <sprintf>
			usart_print(str);		//отправляем строку в порт
 430:	8d e6       	ldi	r24, 0x6D	; 109
 432:	91 e0       	ldi	r25, 0x01	; 1
 434:	0b d1       	rcall	.+534    	; 0x64c <usart_print>
			counter++;				//инкрементируем счетчика
 436:	80 91 6c 01 	lds	r24, 0x016C	; 0x80016c <counter>
 43a:	8f 5f       	subi	r24, 0xFF	; 255
 43c:	80 93 6c 01 	sts	0x016C, r24	; 0x80016c <counter>
 440:	0f 90       	pop	r0
 442:	0f 90       	pop	r0
 444:	0f 90       	pop	r0
 446:	0f 90       	pop	r0
 448:	0f 90       	pop	r0
 44a:	0f 90       	pop	r0
		}
		f_rx = 0;					//опускаем флаг приема
 44c:	10 92 2b 01 	sts	0x012B, r1	; 0x80012b <f_rx>
 450:	08 95       	ret

00000452 <__vector_11>:
}
#endif

#ifdef ATMEGA8
ISR(USART_RXC_vect)
{
 452:	1f 92       	push	r1
 454:	0f 92       	push	r0
 456:	0f b6       	in	r0, 0x3f	; 63
 458:	0f 92       	push	r0
 45a:	11 24       	eor	r1, r1
	//здесь можно прописать действия по получению данных по последовательному порту
}
 45c:	0f 90       	pop	r0
 45e:	0f be       	out	0x3f, r0	; 63
 460:	0f 90       	pop	r0
 462:	1f 90       	pop	r1
 464:	18 95       	reti

00000466 <__vector_1>:
#endif

//Вектор прерывания INT0
ISR(INT0_vect)
{
 466:	1f 92       	push	r1
 468:	0f 92       	push	r0
 46a:	0f b6       	in	r0, 0x3f	; 63
 46c:	0f 92       	push	r0
 46e:	11 24       	eor	r1, r1
 470:	2f 93       	push	r18
 472:	3f 93       	push	r19
 474:	4f 93       	push	r20
 476:	5f 93       	push	r21
 478:	6f 93       	push	r22
 47a:	7f 93       	push	r23
 47c:	8f 93       	push	r24
 47e:	9f 93       	push	r25
 480:	af 93       	push	r26
 482:	bf 93       	push	r27
 484:	ef 93       	push	r30
 486:	ff 93       	push	r31
	irq_callback();	//обрабатываем прерывание от радиомодуля
 488:	5e df       	rcall	.-324    	; 0x346 <irq_callback>
}
 48a:	ff 91       	pop	r31
 48c:	ef 91       	pop	r30
 48e:	bf 91       	pop	r27
 490:	af 91       	pop	r26
 492:	9f 91       	pop	r25
 494:	8f 91       	pop	r24
 496:	7f 91       	pop	r23
 498:	6f 91       	pop	r22
 49a:	5f 91       	pop	r21
 49c:	4f 91       	pop	r20
 49e:	3f 91       	pop	r19
 4a0:	2f 91       	pop	r18
 4a2:	0f 90       	pop	r0
 4a4:	0f be       	out	0x3f, r0	; 63
 4a6:	0f 90       	pop	r0
 4a8:	1f 90       	pop	r1
 4aa:	18 95       	reti

000004ac <nrf_info_print>:

//Процедура вывода в порт данных из регистров радиомодуля
void nrf_info_print(void)
{
 4ac:	0f 93       	push	r16
 4ae:	1f 93       	push	r17
 4b0:	cf 93       	push	r28
 4b2:	df 93       	push	r29
 4b4:	00 d0       	rcall	.+0      	; 0x4b6 <nrf_info_print+0xa>
 4b6:	1f 92       	push	r1
 4b8:	cd b7       	in	r28, 0x3d	; 61
 4ba:	de b7       	in	r29, 0x3e	; 62
	uint8_t buf[TX_ADR_WIDTH] = {0};				//буфер для чтения адресов модуля
 4bc:	19 82       	std	Y+1, r1	; 0x01
 4be:	1a 82       	std	Y+2, r1	; 0x02
 4c0:	1b 82       	std	Y+3, r1	; 0x03
	uint8_t dt_reg = 0;								//переменная для чтения значения регистра
	
	dt_reg = nrf24_read_reg(CONFIG);				//читаем регистр CONFIG
 4c2:	80 e0       	ldi	r24, 0x00	; 0
 4c4:	eb dd       	rcall	.-1066   	; 0x9c <nrf24_read_reg>
	sprintf(str, "CONFIG: 0x%02X\r\n", dt_reg);		//
 4c6:	1f 92       	push	r1
 4c8:	8f 93       	push	r24
 4ca:	86 e8       	ldi	r24, 0x86	; 134
 4cc:	90 e0       	ldi	r25, 0x00	; 0
 4ce:	9f 93       	push	r25
 4d0:	8f 93       	push	r24
 4d2:	0d e6       	ldi	r16, 0x6D	; 109
 4d4:	11 e0       	ldi	r17, 0x01	; 1
 4d6:	1f 93       	push	r17
 4d8:	0f 93       	push	r16
 4da:	f6 d0       	rcall	.+492    	; 0x6c8 <sprintf>
	usart_print(str);								//выводим данные в порт
 4dc:	c8 01       	movw	r24, r16
 4de:	b6 d0       	rcall	.+364    	; 0x64c <usart_print>
	dt_reg = nrf24_read_reg(EN_AA);					//читаем регистр EN_AA
 4e0:	81 e0       	ldi	r24, 0x01	; 1
 4e2:	dc dd       	rcall	.-1096   	; 0x9c <nrf24_read_reg>
	sprintf(str, "EN_AA: 0x%02X\r\n", dt_reg);		//
 4e4:	1f 92       	push	r1
 4e6:	8f 93       	push	r24
 4e8:	87 e9       	ldi	r24, 0x97	; 151
 4ea:	90 e0       	ldi	r25, 0x00	; 0
 4ec:	9f 93       	push	r25
 4ee:	8f 93       	push	r24
 4f0:	1f 93       	push	r17
 4f2:	0f 93       	push	r16
 4f4:	e9 d0       	rcall	.+466    	; 0x6c8 <sprintf>
	usart_print(str);								//выводим данные в порт
 4f6:	c8 01       	movw	r24, r16
 4f8:	a9 d0       	rcall	.+338    	; 0x64c <usart_print>
	dt_reg = nrf24_read_reg(EN_RXADDR);				//читаем регистр EN_RXADDR
 4fa:	82 e0       	ldi	r24, 0x02	; 2
 4fc:	cf dd       	rcall	.-1122   	; 0x9c <nrf24_read_reg>
	sprintf(str, "EN_RXADDR: 0x%02X\r\n", dt_reg);	//
 4fe:	1f 92       	push	r1
 500:	8f 93       	push	r24
 502:	87 ea       	ldi	r24, 0xA7	; 167
 504:	90 e0       	ldi	r25, 0x00	; 0
 506:	9f 93       	push	r25
 508:	8f 93       	push	r24
 50a:	1f 93       	push	r17
 50c:	0f 93       	push	r16
 50e:	dc d0       	rcall	.+440    	; 0x6c8 <sprintf>
	usart_print(str);								//выводим данные в порт
 510:	c8 01       	movw	r24, r16
 512:	9c d0       	rcall	.+312    	; 0x64c <usart_print>
	dt_reg = nrf24_read_reg(STATUS);				//читаем регистр STATUS
 514:	87 e0       	ldi	r24, 0x07	; 7
 516:	c2 dd       	rcall	.-1148   	; 0x9c <nrf24_read_reg>
	sprintf(str, "STATUS: 0x%02X\r\n", dt_reg);		//
 518:	1f 92       	push	r1
 51a:	8f 93       	push	r24
 51c:	8b eb       	ldi	r24, 0xBB	; 187
 51e:	90 e0       	ldi	r25, 0x00	; 0
 520:	9f 93       	push	r25
 522:	8f 93       	push	r24
 524:	1f 93       	push	r17
 526:	0f 93       	push	r16
 528:	cf d0       	rcall	.+414    	; 0x6c8 <sprintf>
	usart_print(str);								//выводим данные в порт
 52a:	c8 01       	movw	r24, r16
 52c:	8f d0       	rcall	.+286    	; 0x64c <usart_print>
	dt_reg = nrf24_read_reg(RF_SETUP);				//читаем регистр RF_SETUP
 52e:	86 e0       	ldi	r24, 0x06	; 6
 530:	b5 dd       	rcall	.-1174   	; 0x9c <nrf24_read_reg>
	sprintf(str, "RF_SETUP: 0x%02X\r\n", dt_reg);	//
 532:	1f 92       	push	r1
 534:	8f 93       	push	r24
 536:	8c ec       	ldi	r24, 0xCC	; 204
 538:	90 e0       	ldi	r25, 0x00	; 0
 53a:	9f 93       	push	r25
 53c:	8f 93       	push	r24
 53e:	1f 93       	push	r17
 540:	0f 93       	push	r16
 542:	c2 d0       	rcall	.+388    	; 0x6c8 <sprintf>
	usart_print(str);								//выводим данные в порт
 544:	c8 01       	movw	r24, r16
 546:	82 d0       	rcall	.+260    	; 0x64c <usart_print>
	nrf24_read_buf(TX_ADDR,buf,3);					//читаем буфер TX_ADDR
 548:	43 e0       	ldi	r20, 0x03	; 3
 54a:	be 01       	movw	r22, r28
 54c:	6f 5f       	subi	r22, 0xFF	; 255
 54e:	7f 4f       	sbci	r23, 0xFF	; 255
 550:	80 e1       	ldi	r24, 0x10	; 16
 552:	d2 dd       	rcall	.-1116   	; 0xf8 <nrf24_read_buf>
	sprintf(str, "TX_ADDR: 0x%02X, 0x%02X, 0x%02X\r\n", buf[0], buf[1], buf[2]);
 554:	2b 81       	ldd	r18, Y+3	; 0x03
 556:	9a 81       	ldd	r25, Y+2	; 0x02
 558:	89 81       	ldd	r24, Y+1	; 0x01
 55a:	1f 92       	push	r1
 55c:	2f 93       	push	r18
 55e:	1f 92       	push	r1
 560:	9f 93       	push	r25
 562:	1f 92       	push	r1
 564:	8f 93       	push	r24
 566:	8f ed       	ldi	r24, 0xDF	; 223
 568:	90 e0       	ldi	r25, 0x00	; 0
 56a:	9f 93       	push	r25
 56c:	8f 93       	push	r24
 56e:	1f 93       	push	r17
 570:	0f 93       	push	r16
 572:	aa d0       	rcall	.+340    	; 0x6c8 <sprintf>
	usart_print(str);								//выводим данные в порт
 574:	0f b6       	in	r0, 0x3f	; 63
 576:	f8 94       	cli
 578:	de bf       	out	0x3e, r29	; 62
 57a:	0f be       	out	0x3f, r0	; 63
 57c:	cd bf       	out	0x3d, r28	; 61
 57e:	c8 01       	movw	r24, r16
 580:	65 d0       	rcall	.+202    	; 0x64c <usart_print>
	nrf24_read_buf(RX_ADDR_P1,buf,3);				//читаем буфер RX_ADDR_P1
 582:	43 e0       	ldi	r20, 0x03	; 3
 584:	be 01       	movw	r22, r28
 586:	6f 5f       	subi	r22, 0xFF	; 255
 588:	7f 4f       	sbci	r23, 0xFF	; 255
 58a:	8b e0       	ldi	r24, 0x0B	; 11
 58c:	b5 dd       	rcall	.-1174   	; 0xf8 <nrf24_read_buf>
	sprintf(str, "RX_ADDR: 0x%02X, 0x%02X, 0x%02X\r\n", buf[0], buf[1], buf[2]);
 58e:	2b 81       	ldd	r18, Y+3	; 0x03
 590:	9a 81       	ldd	r25, Y+2	; 0x02
 592:	89 81       	ldd	r24, Y+1	; 0x01
 594:	1f 92       	push	r1
 596:	2f 93       	push	r18
 598:	1f 92       	push	r1
 59a:	9f 93       	push	r25
 59c:	1f 92       	push	r1
 59e:	8f 93       	push	r24
 5a0:	81 e0       	ldi	r24, 0x01	; 1
 5a2:	91 e0       	ldi	r25, 0x01	; 1
 5a4:	9f 93       	push	r25
 5a6:	8f 93       	push	r24
 5a8:	1f 93       	push	r17
 5aa:	0f 93       	push	r16
 5ac:	8d d0       	rcall	.+282    	; 0x6c8 <sprintf>
	usart_print(str);								//выводим данные в порт
 5ae:	c8 01       	movw	r24, r16
 5b0:	4d d0       	rcall	.+154    	; 0x64c <usart_print>
}
 5b2:	0f b6       	in	r0, 0x3f	; 63
 5b4:	f8 94       	cli
 5b6:	de bf       	out	0x3e, r29	; 62
 5b8:	0f be       	out	0x3f, r0	; 63
 5ba:	cd bf       	out	0x3d, r28	; 61
 5bc:	0f 90       	pop	r0
 5be:	0f 90       	pop	r0
 5c0:	0f 90       	pop	r0
 5c2:	df 91       	pop	r29
 5c4:	cf 91       	pop	r28
 5c6:	1f 91       	pop	r17
 5c8:	0f 91       	pop	r16
 5ca:	08 95       	ret

000005cc <main>:

//Основная программа
int main(void)
{
	spi_init();				//инициализируем SPI
 5cc:	18 d0       	rcall	.+48     	; 0x5fe <spi_init>
	//_delay_ms(1000);		//задержка для корректного включения SPI
	//(в некоторых случаях отсутствие задержки или недостаточная задержка по времени приводила к уходу в ребут при включении питания)
	interrupt_init();		//инициализируем прерывания
 5ce:	ec de       	rcall	.-552    	; 0x3a8 <interrupt_init>
	gpio_init();			//инициализируем порты ввода-вывода
 5d0:	e5 de       	rcall	.-566    	; 0x39c <gpio_init>
	usart_init(103);		//инициализируем USART 9600 бод
 5d2:	87 e6       	ldi	r24, 0x67	; 103
 5d4:	90 e0       	ldi	r25, 0x00	; 0
 5d6:	25 d0       	rcall	.+74     	; 0x622 <usart_init>
	//usart_init(8);		//инициализируем USART 115200 бод
	usart_println("start");	//отправляем стартовую строку в порт
 5d8:	83 e2       	ldi	r24, 0x23	; 35
 5da:	91 e0       	ldi	r25, 0x01	; 1
 5dc:	54 d0       	rcall	.+168    	; 0x686 <usart_println>
	nrf24_init();			//инициализируем радиомодуль
 5de:	77 de       	rcall	.-786    	; 0x2ce <nrf24_init>
	blink_led(5);			//моргаем светодиодом
 5e0:	85 e0       	ldi	r24, 0x05	; 5
 5e2:	ea de       	rcall	.-556    	; 0x3b8 <blink_led>
	nrf_info_print();		//выводим значения регистров в порт
 5e4:	63 df       	rcall	.-314    	; 0x4ac <nrf_info_print>
__attribute__ ((__always_inline__))
void wdt_enable (const uint8_t value)
{
	if (_SFR_IO_REG_P (_WD_CONTROL_REG))
	{
		__asm__ __volatile__ (
 5e6:	9d e0       	ldi	r25, 0x0D	; 13
 5e8:	88 e1       	ldi	r24, 0x18	; 24
 5ea:	0f b6       	in	r0, 0x3f	; 63
 5ec:	f8 94       	cli
 5ee:	a8 95       	wdr
 5f0:	81 bd       	out	0x21, r24	; 33
 5f2:	0f be       	out	0x3f, r0	; 63
 5f4:	91 bd       	out	0x21, r25	; 33
	
	wdt_enable(WDTO_500MS);	//включаем сторожевой таймер
	
	sei();					//глобальное разрешение прерываний	
 5f6:	78 94       	sei
	
    while (1) 
    {
		nrf24l01_receive();	//обрабатываем прием радиомодуля
 5f8:	fc de       	rcall	.-520    	; 0x3f2 <nrf24l01_receive>
		//проверяем, не пришел ли запрос от ведущего
		wdt_reset();		//сбрасываем сторожевой таймер
 5fa:	a8 95       	wdr
 5fc:	fd cf       	rjmp	.-6      	; 0x5f8 <main+0x2c>

000005fe <spi_init>:

//РџСЂРѕС†РµРґСѓСЂР° РёРЅРёС†РёР°Р»РёР·Р°С†РёРё SPI
void spi_init(void)
{
	#ifdef ATMEGA8
	DDRB |= ((1<<PORTB2)|(1<<PORTB3)|(1<<PORTB5));		//РЅРѕР¶РєРё SPI РЅР° РІС‹С…РѕРґ
 5fe:	87 b3       	in	r24, 0x17	; 23
 600:	8c 62       	ori	r24, 0x2C	; 44
 602:	87 bb       	out	0x17, r24	; 23
	PORTB &= ~((1<<PORTB2)|(1<<PORTB3)|(1<<PORTB5));	//РЅРёР·РєРёР№ СѓСЂРѕРІРµРЅСЊ
 604:	88 b3       	in	r24, 0x18	; 24
 606:	83 7d       	andi	r24, 0xD3	; 211
 608:	88 bb       	out	0x18, r24	; 24
	SPCR = (0<<SPIE) | (1<<SPE) | (0<<DORD) | (1<<MSTR) | (0<<CPOL) | (0<<CPHA) | (0<<SPR1) | (0<<SPR0);
 60a:	80 e5       	ldi	r24, 0x50	; 80
 60c:	8d b9       	out	0x0d, r24	; 13
 60e:	08 95       	ret

00000610 <spi_send_byte>:

//РџСЂРѕС†РµРґСѓСЂР° РѕС‚РїСЂР°РІРєРё Р±Р°Р№С‚Р° 
void spi_send_byte(uint8_t byte)
{
	#ifdef ATMEGA8
	SPDR = byte;				//Р·Р°РїРёСЃС‹РІР°РµРј Р±Р°Р№С‚ РІ СЂРµРіРёСЃС‚СЂ
 610:	8f b9       	out	0x0f, r24	; 15
	while(!(SPSR & (1<<SPIF)));	//РїРѕРґРѕР¶РґРµРј РїРѕРєР° РґР°РЅРЅС‹Рµ РїРµСЂРµРґР°РґСѓС‚СЃСЏ
 612:	77 9b       	sbis	0x0e, 7	; 14
 614:	fe cf       	rjmp	.-4      	; 0x612 <spi_send_byte+0x2>
	while(!LL_SPI_IsActiveFlag_TXE(SPI1)) {}
	LL_SPI_TransmitData8 (SPI1, byte);				//Р·Р°РїРёСЃС‹РІР°РµРј Р°РґСЂРµСЃ СЃ РєРѕРјР°РЅРґРѕР№ Р·Р°РїРёСЃРё
	while(!LL_SPI_IsActiveFlag_RXNE(SPI1)) {}
	(void) SPI1->DR;													//С‡РёС‚Р°РµРј СЂРµРіРёСЃС‚СЂ DR, РёРјРёС‚Р°С†РёСЏ РїСЂРёРµРјР°, РєРѕС‚РѕСЂС‹Р№ РѕР±СЏР·Р°С‚РµР»СЊРЅРѕ РїСЂРѕРёСЃС…РѕРґРёС‚ РѕРґРЅРѕРІСЂРµРјРµРЅРЅРѕ СЃ Р·Р°РїРёСЃСЊСЋ
	#endif
}
 616:	08 95       	ret

00000618 <spi_change_byte>:

//Р¤СѓРЅРєС†РёСЏ РїСЂРёРµРјР°/РѕС‚РїСЂР°РІРєРё Р±Р°Р№С‚Р°
uint8_t spi_change_byte(uint8_t byte)
{
	#ifdef ATMEGA8
	SPDR = byte;				//Р·Р°РїРёСЃС‹РІР°РµРј Р±Р°Р№С‚ РІ СЂРµРіРёСЃС‚СЂ
 618:	8f b9       	out	0x0f, r24	; 15
	while(!(SPSR & (1<<SPIF)));	//РїРѕРґРѕР¶РґРµРј РїРѕРєР° РґР°РЅРЅС‹Рµ РїРµСЂРµРґР°РґСѓС‚СЃСЏ (РѕР±РјРµРЅСЏСЋС‚СЃСЏ)
 61a:	77 9b       	sbis	0x0e, 7	; 14
 61c:	fe cf       	rjmp	.-4      	; 0x61a <spi_change_byte+0x2>
	return SPDR;				//РІРѕР·РІСЂР°С‰Р°РµРј РїСЂРёРЅСЏС‚РѕРµ Р·РЅР°С‡РµРЅРёРµ
 61e:	8f b1       	in	r24, 0x0f	; 15
  LL_SPI_TransmitData8 (SPI1, byte);				//РїРµСЂРµРґР°РµРј Р±Р°Р№С‚ Р°РґСЂРµСЃР° РїРѕ spi
	while(!LL_SPI_IsActiveFlag_RXNE(SPI1)) {} //Р¶РґРµРј РїРѕРєР° РЅРµ РїРѕРґРЅРёРјРµС‚СЃСЏ С„Р»Р°Рі rxne (РµСЃС‚СЊ РґР°РЅРЅС‹Рµ РЅР° РїСЂРёРµРј)
	dt = LL_SPI_ReceiveData8(SPI1);						//РїСЂРёРЅРёРјР°РµРј РґР°РЅРЅС‹Рµ РїРѕ spi
	return dt;
	#endif
 620:	08 95       	ret

00000622 <usart_init>:
//РџСЂРѕС†РµРґСѓСЂР° РёРЅРёС†РёР°Р»РёР·Р°С†РёРё USART
void usart_init(unsigned int ubrr)
{
	#ifdef ATMEGA8
	//РЅР°СЃС‚СЂРѕРёРј РїРёРЅС‹ РїСЂРёРµРјР° Рё РїРµСЂРµРґР°С‡Рё РЅР° РІС…РѕРґ
	DDRD |= (0<<DDD1) | (0<<DDD0);
 622:	21 b3       	in	r18, 0x11	; 17
 624:	21 bb       	out	0x11, r18	; 17
	PORTD |= (0<<PORTD1) | (0<<PORTD0);
 626:	22 b3       	in	r18, 0x12	; 18
 628:	22 bb       	out	0x12, r18	; 18
	//Р·Р°РґР°РґРёРј СЃРєРѕСЂРѕСЃС‚СЊ СЂР°Р±РѕС‚С‹ USART
	UBRRH = (unsigned char)(ubrr>>8);
 62a:	90 bd       	out	0x20, r25	; 32
	UBRRL = (unsigned char)ubrr;
 62c:	89 b9       	out	0x09, r24	; 9
		
	UCSRB=(1<<RXEN)|( 1<<TXEN); //РІРєР»СЋС‡Р°РµРј РїСЂРёРµРј Рё РїРµСЂРµРґР°С‡Сѓ РїРѕ USART
 62e:	88 e1       	ldi	r24, 0x18	; 24
 630:	8a b9       	out	0x0a, r24	; 10
	UCSRB |= (1<<RXCIE);		//СЂР°Р·СЂРµС€Р°РµРј РїСЂРµСЂС‹РІР°РЅРёРµ РїСЂРё РїРµСЂРµРґР°С‡Рµ
 632:	8a b1       	in	r24, 0x0a	; 10
 634:	80 68       	ori	r24, 0x80	; 128
 636:	8a b9       	out	0x0a, r24	; 10
	UCSRA |= (1<<U2X);			// РґР»СЏ 8 РјРіС†
 638:	8b b1       	in	r24, 0x0b	; 11
 63a:	82 60       	ori	r24, 0x02	; 2
 63c:	8b b9       	out	0x0b, r24	; 11
	UCSRC = (1<<URSEL)|(1<<USBS)|(1<<UCSZ1)|(1<<UCSZ0);// РѕР±СЂР°С‰Р°РµРјСЃСЏ РёРјРµРЅРЅРѕ Рє СЂРµРіРёСЃС‚СЂСѓ UCSRC (URSEL=1),
 63e:	8e e8       	ldi	r24, 0x8E	; 142
 640:	80 bd       	out	0x20, r24	; 32
 642:	08 95       	ret

00000644 <usart_transmit>:

//РџСЂРѕС†РµРґСѓСЂР° РѕС‚РїСЂР°РІРєРё РѕРґРЅРѕРіРѕ Р±Р°Р№С‚Р°
void usart_transmit(unsigned char data) 
{
	#ifdef ATMEGA8
	while ( !(UCSRA & (1<<UDRE)) ); //Р¶РґРµРј РѕРїСѓСЃС‚РѕС€РµРЅРёСЏ Р±СѓС„РµСЂР° РїСЂРёРµРјР°
 644:	5d 9b       	sbis	0x0b, 5	; 11
 646:	fe cf       	rjmp	.-4      	; 0x644 <usart_transmit>
	UDR = data;						//Р·Р°РїРёСЃС‹РІР°РµРј Р±Р°Р№С‚ РІ СЂРµРіРёСЃС‚СЂ
 648:	8c b9       	out	0x0c, r24	; 12
 64a:	08 95       	ret

0000064c <usart_print>:
	#endif
}

//РџСЂРѕС†РµРґСѓСЂР° РѕС‚РїСЂР°РІРєРё РјР°СЃСЃРёРІР°
void usart_print(char *str)
{	//С†РёРєР» РїРѕ РІСЃРµРјСѓ РјР°СЃСЃРёРІСѓ
 64c:	0f 93       	push	r16
 64e:	1f 93       	push	r17
 650:	cf 93       	push	r28
 652:	df 93       	push	r29
 654:	8c 01       	movw	r16, r24
	for (int i = 0; i < strlen(str); i++)
 656:	c0 e0       	ldi	r28, 0x00	; 0
 658:	d0 e0       	ldi	r29, 0x00	; 0
 65a:	06 c0       	rjmp	.+12     	; 0x668 <usart_print+0x1c>
	{
		usart_transmit(str[i]); //РѕС‚РїСЂР°РІР»СЏРµРј РѕС‡РµСЂРµРґРЅРѕР№ Р±Р°Р№С‚
 65c:	f8 01       	movw	r30, r16
 65e:	ec 0f       	add	r30, r28
 660:	fd 1f       	adc	r31, r29
 662:	80 81       	ld	r24, Z
 664:	ef df       	rcall	.-34     	; 0x644 <usart_transmit>
}

//РџСЂРѕС†РµРґСѓСЂР° РѕС‚РїСЂР°РІРєРё РјР°СЃСЃРёРІР°
void usart_print(char *str)
{	//С†РёРєР» РїРѕ РІСЃРµРјСѓ РјР°СЃСЃРёРІСѓ
	for (int i = 0; i < strlen(str); i++)
 666:	21 96       	adiw	r28, 0x01	; 1
 668:	f8 01       	movw	r30, r16
 66a:	01 90       	ld	r0, Z+
 66c:	00 20       	and	r0, r0
 66e:	e9 f7       	brne	.-6      	; 0x66a <usart_print+0x1e>
 670:	31 97       	sbiw	r30, 0x01	; 1
 672:	e0 1b       	sub	r30, r16
 674:	f1 0b       	sbc	r31, r17
 676:	ce 17       	cp	r28, r30
 678:	df 07       	cpc	r29, r31
 67a:	80 f3       	brcs	.-32     	; 0x65c <usart_print+0x10>
	{
		usart_transmit(str[i]); //РѕС‚РїСЂР°РІР»СЏРµРј РѕС‡РµСЂРµРґРЅРѕР№ Р±Р°Р№С‚
	}
}
 67c:	df 91       	pop	r29
 67e:	cf 91       	pop	r28
 680:	1f 91       	pop	r17
 682:	0f 91       	pop	r16
 684:	08 95       	ret

00000686 <usart_println>:

//РџСЂРѕС†РµРґСѓСЂР° РѕС‚РїСЂР°РІРєРё РјР°СЃСЃРёРІР° СЃ РїРµСЂРµС…РѕРґРѕРј РІ РЅР°С‡Р°Р»Рѕ РЅРѕРІРѕР№ СЃС‚СЂРѕРєРё
void usart_println(char *str)
{	//С†РёРєР» РїРѕ РІСЃРµРјСѓ РјР°СЃСЃРёРІСѓ
 686:	0f 93       	push	r16
 688:	1f 93       	push	r17
 68a:	cf 93       	push	r28
 68c:	df 93       	push	r29
 68e:	8c 01       	movw	r16, r24
	for (int i = 0; i < strlen(str); i++)
 690:	c0 e0       	ldi	r28, 0x00	; 0
 692:	d0 e0       	ldi	r29, 0x00	; 0
 694:	06 c0       	rjmp	.+12     	; 0x6a2 <usart_println+0x1c>
	{
		usart_transmit(str[i]);  //РѕС‚РїСЂР°РІР»СЏРµРј РѕС‡РµСЂРµРґРЅРѕР№ Р±Р°Р№С‚
 696:	f8 01       	movw	r30, r16
 698:	ec 0f       	add	r30, r28
 69a:	fd 1f       	adc	r31, r29
 69c:	80 81       	ld	r24, Z
 69e:	d2 df       	rcall	.-92     	; 0x644 <usart_transmit>
}

//РџСЂРѕС†РµРґСѓСЂР° РѕС‚РїСЂР°РІРєРё РјР°СЃСЃРёРІР° СЃ РїРµСЂРµС…РѕРґРѕРј РІ РЅР°С‡Р°Р»Рѕ РЅРѕРІРѕР№ СЃС‚СЂРѕРєРё
void usart_println(char *str)
{	//С†РёРєР» РїРѕ РІСЃРµРјСѓ РјР°СЃСЃРёРІСѓ
	for (int i = 0; i < strlen(str); i++)
 6a0:	21 96       	adiw	r28, 0x01	; 1
 6a2:	f8 01       	movw	r30, r16
 6a4:	01 90       	ld	r0, Z+
 6a6:	00 20       	and	r0, r0
 6a8:	e9 f7       	brne	.-6      	; 0x6a4 <usart_println+0x1e>
 6aa:	31 97       	sbiw	r30, 0x01	; 1
 6ac:	e0 1b       	sub	r30, r16
 6ae:	f1 0b       	sbc	r31, r17
 6b0:	ce 17       	cp	r28, r30
 6b2:	df 07       	cpc	r29, r31
 6b4:	80 f3       	brcs	.-32     	; 0x696 <usart_println+0x10>
	{
		usart_transmit(str[i]);  //РѕС‚РїСЂР°РІР»СЏРµРј РѕС‡РµСЂРµРґРЅРѕР№ Р±Р°Р№С‚
	}
	usart_transmit(0x0d);		//РїРµСЂРµС…РѕРґ РІ РЅР°С‡Р°Р»Рѕ СЃС‚СЂРѕРєРё
 6b6:	8d e0       	ldi	r24, 0x0D	; 13
 6b8:	c5 df       	rcall	.-118    	; 0x644 <usart_transmit>
	usart_transmit(0x0a);		//РїРµСЂРµС…РѕРґ РЅР° РЅРѕРІСѓСЋ СЃС‚СЂРѕРєСѓ
 6ba:	8a e0       	ldi	r24, 0x0A	; 10
 6bc:	c3 df       	rcall	.-122    	; 0x644 <usart_transmit>
 6be:	df 91       	pop	r29
 6c0:	cf 91       	pop	r28
 6c2:	1f 91       	pop	r17
 6c4:	0f 91       	pop	r16
 6c6:	08 95       	ret

000006c8 <sprintf>:
 6c8:	ae e0       	ldi	r26, 0x0E	; 14
 6ca:	b0 e0       	ldi	r27, 0x00	; 0
 6cc:	e9 e6       	ldi	r30, 0x69	; 105
 6ce:	f3 e0       	ldi	r31, 0x03	; 3
 6d0:	aa c2       	rjmp	.+1364   	; 0xc26 <__prologue_saves__+0x1c>
 6d2:	0d 89       	ldd	r16, Y+21	; 0x15
 6d4:	1e 89       	ldd	r17, Y+22	; 0x16
 6d6:	86 e0       	ldi	r24, 0x06	; 6
 6d8:	8c 83       	std	Y+4, r24	; 0x04
 6da:	1a 83       	std	Y+2, r17	; 0x02
 6dc:	09 83       	std	Y+1, r16	; 0x01
 6de:	8f ef       	ldi	r24, 0xFF	; 255
 6e0:	9f e7       	ldi	r25, 0x7F	; 127
 6e2:	9e 83       	std	Y+6, r25	; 0x06
 6e4:	8d 83       	std	Y+5, r24	; 0x05
 6e6:	ae 01       	movw	r20, r28
 6e8:	47 5e       	subi	r20, 0xE7	; 231
 6ea:	5f 4f       	sbci	r21, 0xFF	; 255
 6ec:	6f 89       	ldd	r22, Y+23	; 0x17
 6ee:	78 8d       	ldd	r23, Y+24	; 0x18
 6f0:	ce 01       	movw	r24, r28
 6f2:	01 96       	adiw	r24, 0x01	; 1
 6f4:	08 d0       	rcall	.+16     	; 0x706 <vfprintf>
 6f6:	ef 81       	ldd	r30, Y+7	; 0x07
 6f8:	f8 85       	ldd	r31, Y+8	; 0x08
 6fa:	e0 0f       	add	r30, r16
 6fc:	f1 1f       	adc	r31, r17
 6fe:	10 82       	st	Z, r1
 700:	2e 96       	adiw	r28, 0x0e	; 14
 702:	e4 e0       	ldi	r30, 0x04	; 4
 704:	ac c2       	rjmp	.+1368   	; 0xc5e <__epilogue_restores__+0x1c>

00000706 <vfprintf>:
 706:	ab e0       	ldi	r26, 0x0B	; 11
 708:	b0 e0       	ldi	r27, 0x00	; 0
 70a:	e8 e8       	ldi	r30, 0x88	; 136
 70c:	f3 e0       	ldi	r31, 0x03	; 3
 70e:	7d c2       	rjmp	.+1274   	; 0xc0a <__prologue_saves__>
 710:	6c 01       	movw	r12, r24
 712:	7b 01       	movw	r14, r22
 714:	8a 01       	movw	r16, r20
 716:	fc 01       	movw	r30, r24
 718:	17 82       	std	Z+7, r1	; 0x07
 71a:	16 82       	std	Z+6, r1	; 0x06
 71c:	83 81       	ldd	r24, Z+3	; 0x03
 71e:	81 ff       	sbrs	r24, 1
 720:	bf c1       	rjmp	.+894    	; 0xaa0 <vfprintf+0x39a>
 722:	ce 01       	movw	r24, r28
 724:	01 96       	adiw	r24, 0x01	; 1
 726:	3c 01       	movw	r6, r24
 728:	f6 01       	movw	r30, r12
 72a:	93 81       	ldd	r25, Z+3	; 0x03
 72c:	f7 01       	movw	r30, r14
 72e:	93 fd       	sbrc	r25, 3
 730:	85 91       	lpm	r24, Z+
 732:	93 ff       	sbrs	r25, 3
 734:	81 91       	ld	r24, Z+
 736:	7f 01       	movw	r14, r30
 738:	88 23       	and	r24, r24
 73a:	09 f4       	brne	.+2      	; 0x73e <vfprintf+0x38>
 73c:	ad c1       	rjmp	.+858    	; 0xa98 <vfprintf+0x392>
 73e:	85 32       	cpi	r24, 0x25	; 37
 740:	39 f4       	brne	.+14     	; 0x750 <vfprintf+0x4a>
 742:	93 fd       	sbrc	r25, 3
 744:	85 91       	lpm	r24, Z+
 746:	93 ff       	sbrs	r25, 3
 748:	81 91       	ld	r24, Z+
 74a:	7f 01       	movw	r14, r30
 74c:	85 32       	cpi	r24, 0x25	; 37
 74e:	21 f4       	brne	.+8      	; 0x758 <vfprintf+0x52>
 750:	b6 01       	movw	r22, r12
 752:	90 e0       	ldi	r25, 0x00	; 0
 754:	c0 d1       	rcall	.+896    	; 0xad6 <fputc>
 756:	e8 cf       	rjmp	.-48     	; 0x728 <vfprintf+0x22>
 758:	91 2c       	mov	r9, r1
 75a:	21 2c       	mov	r2, r1
 75c:	31 2c       	mov	r3, r1
 75e:	ff e1       	ldi	r31, 0x1F	; 31
 760:	f3 15       	cp	r31, r3
 762:	d8 f0       	brcs	.+54     	; 0x79a <vfprintf+0x94>
 764:	8b 32       	cpi	r24, 0x2B	; 43
 766:	79 f0       	breq	.+30     	; 0x786 <vfprintf+0x80>
 768:	38 f4       	brcc	.+14     	; 0x778 <vfprintf+0x72>
 76a:	80 32       	cpi	r24, 0x20	; 32
 76c:	79 f0       	breq	.+30     	; 0x78c <vfprintf+0x86>
 76e:	83 32       	cpi	r24, 0x23	; 35
 770:	a1 f4       	brne	.+40     	; 0x79a <vfprintf+0x94>
 772:	23 2d       	mov	r18, r3
 774:	20 61       	ori	r18, 0x10	; 16
 776:	1d c0       	rjmp	.+58     	; 0x7b2 <vfprintf+0xac>
 778:	8d 32       	cpi	r24, 0x2D	; 45
 77a:	61 f0       	breq	.+24     	; 0x794 <vfprintf+0x8e>
 77c:	80 33       	cpi	r24, 0x30	; 48
 77e:	69 f4       	brne	.+26     	; 0x79a <vfprintf+0x94>
 780:	23 2d       	mov	r18, r3
 782:	21 60       	ori	r18, 0x01	; 1
 784:	16 c0       	rjmp	.+44     	; 0x7b2 <vfprintf+0xac>
 786:	83 2d       	mov	r24, r3
 788:	82 60       	ori	r24, 0x02	; 2
 78a:	38 2e       	mov	r3, r24
 78c:	e3 2d       	mov	r30, r3
 78e:	e4 60       	ori	r30, 0x04	; 4
 790:	3e 2e       	mov	r3, r30
 792:	2a c0       	rjmp	.+84     	; 0x7e8 <vfprintf+0xe2>
 794:	f3 2d       	mov	r31, r3
 796:	f8 60       	ori	r31, 0x08	; 8
 798:	1d c0       	rjmp	.+58     	; 0x7d4 <vfprintf+0xce>
 79a:	37 fc       	sbrc	r3, 7
 79c:	2d c0       	rjmp	.+90     	; 0x7f8 <vfprintf+0xf2>
 79e:	20 ed       	ldi	r18, 0xD0	; 208
 7a0:	28 0f       	add	r18, r24
 7a2:	2a 30       	cpi	r18, 0x0A	; 10
 7a4:	40 f0       	brcs	.+16     	; 0x7b6 <vfprintf+0xb0>
 7a6:	8e 32       	cpi	r24, 0x2E	; 46
 7a8:	b9 f4       	brne	.+46     	; 0x7d8 <vfprintf+0xd2>
 7aa:	36 fc       	sbrc	r3, 6
 7ac:	75 c1       	rjmp	.+746    	; 0xa98 <vfprintf+0x392>
 7ae:	23 2d       	mov	r18, r3
 7b0:	20 64       	ori	r18, 0x40	; 64
 7b2:	32 2e       	mov	r3, r18
 7b4:	19 c0       	rjmp	.+50     	; 0x7e8 <vfprintf+0xe2>
 7b6:	36 fe       	sbrs	r3, 6
 7b8:	06 c0       	rjmp	.+12     	; 0x7c6 <vfprintf+0xc0>
 7ba:	8a e0       	ldi	r24, 0x0A	; 10
 7bc:	98 9e       	mul	r9, r24
 7be:	20 0d       	add	r18, r0
 7c0:	11 24       	eor	r1, r1
 7c2:	92 2e       	mov	r9, r18
 7c4:	11 c0       	rjmp	.+34     	; 0x7e8 <vfprintf+0xe2>
 7c6:	ea e0       	ldi	r30, 0x0A	; 10
 7c8:	2e 9e       	mul	r2, r30
 7ca:	20 0d       	add	r18, r0
 7cc:	11 24       	eor	r1, r1
 7ce:	22 2e       	mov	r2, r18
 7d0:	f3 2d       	mov	r31, r3
 7d2:	f0 62       	ori	r31, 0x20	; 32
 7d4:	3f 2e       	mov	r3, r31
 7d6:	08 c0       	rjmp	.+16     	; 0x7e8 <vfprintf+0xe2>
 7d8:	8c 36       	cpi	r24, 0x6C	; 108
 7da:	21 f4       	brne	.+8      	; 0x7e4 <vfprintf+0xde>
 7dc:	83 2d       	mov	r24, r3
 7de:	80 68       	ori	r24, 0x80	; 128
 7e0:	38 2e       	mov	r3, r24
 7e2:	02 c0       	rjmp	.+4      	; 0x7e8 <vfprintf+0xe2>
 7e4:	88 36       	cpi	r24, 0x68	; 104
 7e6:	41 f4       	brne	.+16     	; 0x7f8 <vfprintf+0xf2>
 7e8:	f7 01       	movw	r30, r14
 7ea:	93 fd       	sbrc	r25, 3
 7ec:	85 91       	lpm	r24, Z+
 7ee:	93 ff       	sbrs	r25, 3
 7f0:	81 91       	ld	r24, Z+
 7f2:	7f 01       	movw	r14, r30
 7f4:	81 11       	cpse	r24, r1
 7f6:	b3 cf       	rjmp	.-154    	; 0x75e <vfprintf+0x58>
 7f8:	98 2f       	mov	r25, r24
 7fa:	9f 7d       	andi	r25, 0xDF	; 223
 7fc:	95 54       	subi	r25, 0x45	; 69
 7fe:	93 30       	cpi	r25, 0x03	; 3
 800:	28 f4       	brcc	.+10     	; 0x80c <vfprintf+0x106>
 802:	0c 5f       	subi	r16, 0xFC	; 252
 804:	1f 4f       	sbci	r17, 0xFF	; 255
 806:	9f e3       	ldi	r25, 0x3F	; 63
 808:	99 83       	std	Y+1, r25	; 0x01
 80a:	0d c0       	rjmp	.+26     	; 0x826 <vfprintf+0x120>
 80c:	83 36       	cpi	r24, 0x63	; 99
 80e:	31 f0       	breq	.+12     	; 0x81c <vfprintf+0x116>
 810:	83 37       	cpi	r24, 0x73	; 115
 812:	71 f0       	breq	.+28     	; 0x830 <vfprintf+0x12a>
 814:	83 35       	cpi	r24, 0x53	; 83
 816:	09 f0       	breq	.+2      	; 0x81a <vfprintf+0x114>
 818:	55 c0       	rjmp	.+170    	; 0x8c4 <vfprintf+0x1be>
 81a:	20 c0       	rjmp	.+64     	; 0x85c <vfprintf+0x156>
 81c:	f8 01       	movw	r30, r16
 81e:	80 81       	ld	r24, Z
 820:	89 83       	std	Y+1, r24	; 0x01
 822:	0e 5f       	subi	r16, 0xFE	; 254
 824:	1f 4f       	sbci	r17, 0xFF	; 255
 826:	88 24       	eor	r8, r8
 828:	83 94       	inc	r8
 82a:	91 2c       	mov	r9, r1
 82c:	53 01       	movw	r10, r6
 82e:	12 c0       	rjmp	.+36     	; 0x854 <vfprintf+0x14e>
 830:	28 01       	movw	r4, r16
 832:	f2 e0       	ldi	r31, 0x02	; 2
 834:	4f 0e       	add	r4, r31
 836:	51 1c       	adc	r5, r1
 838:	f8 01       	movw	r30, r16
 83a:	a0 80       	ld	r10, Z
 83c:	b1 80       	ldd	r11, Z+1	; 0x01
 83e:	36 fe       	sbrs	r3, 6
 840:	03 c0       	rjmp	.+6      	; 0x848 <vfprintf+0x142>
 842:	69 2d       	mov	r22, r9
 844:	70 e0       	ldi	r23, 0x00	; 0
 846:	02 c0       	rjmp	.+4      	; 0x84c <vfprintf+0x146>
 848:	6f ef       	ldi	r22, 0xFF	; 255
 84a:	7f ef       	ldi	r23, 0xFF	; 255
 84c:	c5 01       	movw	r24, r10
 84e:	38 d1       	rcall	.+624    	; 0xac0 <strnlen>
 850:	4c 01       	movw	r8, r24
 852:	82 01       	movw	r16, r4
 854:	f3 2d       	mov	r31, r3
 856:	ff 77       	andi	r31, 0x7F	; 127
 858:	3f 2e       	mov	r3, r31
 85a:	15 c0       	rjmp	.+42     	; 0x886 <vfprintf+0x180>
 85c:	28 01       	movw	r4, r16
 85e:	22 e0       	ldi	r18, 0x02	; 2
 860:	42 0e       	add	r4, r18
 862:	51 1c       	adc	r5, r1
 864:	f8 01       	movw	r30, r16
 866:	a0 80       	ld	r10, Z
 868:	b1 80       	ldd	r11, Z+1	; 0x01
 86a:	36 fe       	sbrs	r3, 6
 86c:	03 c0       	rjmp	.+6      	; 0x874 <vfprintf+0x16e>
 86e:	69 2d       	mov	r22, r9
 870:	70 e0       	ldi	r23, 0x00	; 0
 872:	02 c0       	rjmp	.+4      	; 0x878 <vfprintf+0x172>
 874:	6f ef       	ldi	r22, 0xFF	; 255
 876:	7f ef       	ldi	r23, 0xFF	; 255
 878:	c5 01       	movw	r24, r10
 87a:	17 d1       	rcall	.+558    	; 0xaaa <strnlen_P>
 87c:	4c 01       	movw	r8, r24
 87e:	f3 2d       	mov	r31, r3
 880:	f0 68       	ori	r31, 0x80	; 128
 882:	3f 2e       	mov	r3, r31
 884:	82 01       	movw	r16, r4
 886:	33 fc       	sbrc	r3, 3
 888:	19 c0       	rjmp	.+50     	; 0x8bc <vfprintf+0x1b6>
 88a:	82 2d       	mov	r24, r2
 88c:	90 e0       	ldi	r25, 0x00	; 0
 88e:	88 16       	cp	r8, r24
 890:	99 06       	cpc	r9, r25
 892:	a0 f4       	brcc	.+40     	; 0x8bc <vfprintf+0x1b6>
 894:	b6 01       	movw	r22, r12
 896:	80 e2       	ldi	r24, 0x20	; 32
 898:	90 e0       	ldi	r25, 0x00	; 0
 89a:	1d d1       	rcall	.+570    	; 0xad6 <fputc>
 89c:	2a 94       	dec	r2
 89e:	f5 cf       	rjmp	.-22     	; 0x88a <vfprintf+0x184>
 8a0:	f5 01       	movw	r30, r10
 8a2:	37 fc       	sbrc	r3, 7
 8a4:	85 91       	lpm	r24, Z+
 8a6:	37 fe       	sbrs	r3, 7
 8a8:	81 91       	ld	r24, Z+
 8aa:	5f 01       	movw	r10, r30
 8ac:	b6 01       	movw	r22, r12
 8ae:	90 e0       	ldi	r25, 0x00	; 0
 8b0:	12 d1       	rcall	.+548    	; 0xad6 <fputc>
 8b2:	21 10       	cpse	r2, r1
 8b4:	2a 94       	dec	r2
 8b6:	21 e0       	ldi	r18, 0x01	; 1
 8b8:	82 1a       	sub	r8, r18
 8ba:	91 08       	sbc	r9, r1
 8bc:	81 14       	cp	r8, r1
 8be:	91 04       	cpc	r9, r1
 8c0:	79 f7       	brne	.-34     	; 0x8a0 <vfprintf+0x19a>
 8c2:	e1 c0       	rjmp	.+450    	; 0xa86 <vfprintf+0x380>
 8c4:	84 36       	cpi	r24, 0x64	; 100
 8c6:	11 f0       	breq	.+4      	; 0x8cc <vfprintf+0x1c6>
 8c8:	89 36       	cpi	r24, 0x69	; 105
 8ca:	39 f5       	brne	.+78     	; 0x91a <vfprintf+0x214>
 8cc:	f8 01       	movw	r30, r16
 8ce:	37 fe       	sbrs	r3, 7
 8d0:	07 c0       	rjmp	.+14     	; 0x8e0 <vfprintf+0x1da>
 8d2:	60 81       	ld	r22, Z
 8d4:	71 81       	ldd	r23, Z+1	; 0x01
 8d6:	82 81       	ldd	r24, Z+2	; 0x02
 8d8:	93 81       	ldd	r25, Z+3	; 0x03
 8da:	0c 5f       	subi	r16, 0xFC	; 252
 8dc:	1f 4f       	sbci	r17, 0xFF	; 255
 8de:	08 c0       	rjmp	.+16     	; 0x8f0 <vfprintf+0x1ea>
 8e0:	60 81       	ld	r22, Z
 8e2:	71 81       	ldd	r23, Z+1	; 0x01
 8e4:	07 2e       	mov	r0, r23
 8e6:	00 0c       	add	r0, r0
 8e8:	88 0b       	sbc	r24, r24
 8ea:	99 0b       	sbc	r25, r25
 8ec:	0e 5f       	subi	r16, 0xFE	; 254
 8ee:	1f 4f       	sbci	r17, 0xFF	; 255
 8f0:	f3 2d       	mov	r31, r3
 8f2:	ff 76       	andi	r31, 0x6F	; 111
 8f4:	3f 2e       	mov	r3, r31
 8f6:	97 ff       	sbrs	r25, 7
 8f8:	09 c0       	rjmp	.+18     	; 0x90c <vfprintf+0x206>
 8fa:	90 95       	com	r25
 8fc:	80 95       	com	r24
 8fe:	70 95       	com	r23
 900:	61 95       	neg	r22
 902:	7f 4f       	sbci	r23, 0xFF	; 255
 904:	8f 4f       	sbci	r24, 0xFF	; 255
 906:	9f 4f       	sbci	r25, 0xFF	; 255
 908:	f0 68       	ori	r31, 0x80	; 128
 90a:	3f 2e       	mov	r3, r31
 90c:	2a e0       	ldi	r18, 0x0A	; 10
 90e:	30 e0       	ldi	r19, 0x00	; 0
 910:	a3 01       	movw	r20, r6
 912:	1d d1       	rcall	.+570    	; 0xb4e <__ultoa_invert>
 914:	88 2e       	mov	r8, r24
 916:	86 18       	sub	r8, r6
 918:	44 c0       	rjmp	.+136    	; 0x9a2 <vfprintf+0x29c>
 91a:	85 37       	cpi	r24, 0x75	; 117
 91c:	31 f4       	brne	.+12     	; 0x92a <vfprintf+0x224>
 91e:	23 2d       	mov	r18, r3
 920:	2f 7e       	andi	r18, 0xEF	; 239
 922:	b2 2e       	mov	r11, r18
 924:	2a e0       	ldi	r18, 0x0A	; 10
 926:	30 e0       	ldi	r19, 0x00	; 0
 928:	25 c0       	rjmp	.+74     	; 0x974 <vfprintf+0x26e>
 92a:	93 2d       	mov	r25, r3
 92c:	99 7f       	andi	r25, 0xF9	; 249
 92e:	b9 2e       	mov	r11, r25
 930:	8f 36       	cpi	r24, 0x6F	; 111
 932:	c1 f0       	breq	.+48     	; 0x964 <vfprintf+0x25e>
 934:	18 f4       	brcc	.+6      	; 0x93c <vfprintf+0x236>
 936:	88 35       	cpi	r24, 0x58	; 88
 938:	79 f0       	breq	.+30     	; 0x958 <vfprintf+0x252>
 93a:	ae c0       	rjmp	.+348    	; 0xa98 <vfprintf+0x392>
 93c:	80 37       	cpi	r24, 0x70	; 112
 93e:	19 f0       	breq	.+6      	; 0x946 <vfprintf+0x240>
 940:	88 37       	cpi	r24, 0x78	; 120
 942:	21 f0       	breq	.+8      	; 0x94c <vfprintf+0x246>
 944:	a9 c0       	rjmp	.+338    	; 0xa98 <vfprintf+0x392>
 946:	e9 2f       	mov	r30, r25
 948:	e0 61       	ori	r30, 0x10	; 16
 94a:	be 2e       	mov	r11, r30
 94c:	b4 fe       	sbrs	r11, 4
 94e:	0d c0       	rjmp	.+26     	; 0x96a <vfprintf+0x264>
 950:	fb 2d       	mov	r31, r11
 952:	f4 60       	ori	r31, 0x04	; 4
 954:	bf 2e       	mov	r11, r31
 956:	09 c0       	rjmp	.+18     	; 0x96a <vfprintf+0x264>
 958:	34 fe       	sbrs	r3, 4
 95a:	0a c0       	rjmp	.+20     	; 0x970 <vfprintf+0x26a>
 95c:	29 2f       	mov	r18, r25
 95e:	26 60       	ori	r18, 0x06	; 6
 960:	b2 2e       	mov	r11, r18
 962:	06 c0       	rjmp	.+12     	; 0x970 <vfprintf+0x26a>
 964:	28 e0       	ldi	r18, 0x08	; 8
 966:	30 e0       	ldi	r19, 0x00	; 0
 968:	05 c0       	rjmp	.+10     	; 0x974 <vfprintf+0x26e>
 96a:	20 e1       	ldi	r18, 0x10	; 16
 96c:	30 e0       	ldi	r19, 0x00	; 0
 96e:	02 c0       	rjmp	.+4      	; 0x974 <vfprintf+0x26e>
 970:	20 e1       	ldi	r18, 0x10	; 16
 972:	32 e0       	ldi	r19, 0x02	; 2
 974:	f8 01       	movw	r30, r16
 976:	b7 fe       	sbrs	r11, 7
 978:	07 c0       	rjmp	.+14     	; 0x988 <vfprintf+0x282>
 97a:	60 81       	ld	r22, Z
 97c:	71 81       	ldd	r23, Z+1	; 0x01
 97e:	82 81       	ldd	r24, Z+2	; 0x02
 980:	93 81       	ldd	r25, Z+3	; 0x03
 982:	0c 5f       	subi	r16, 0xFC	; 252
 984:	1f 4f       	sbci	r17, 0xFF	; 255
 986:	06 c0       	rjmp	.+12     	; 0x994 <vfprintf+0x28e>
 988:	60 81       	ld	r22, Z
 98a:	71 81       	ldd	r23, Z+1	; 0x01
 98c:	80 e0       	ldi	r24, 0x00	; 0
 98e:	90 e0       	ldi	r25, 0x00	; 0
 990:	0e 5f       	subi	r16, 0xFE	; 254
 992:	1f 4f       	sbci	r17, 0xFF	; 255
 994:	a3 01       	movw	r20, r6
 996:	db d0       	rcall	.+438    	; 0xb4e <__ultoa_invert>
 998:	88 2e       	mov	r8, r24
 99a:	86 18       	sub	r8, r6
 99c:	fb 2d       	mov	r31, r11
 99e:	ff 77       	andi	r31, 0x7F	; 127
 9a0:	3f 2e       	mov	r3, r31
 9a2:	36 fe       	sbrs	r3, 6
 9a4:	0d c0       	rjmp	.+26     	; 0x9c0 <vfprintf+0x2ba>
 9a6:	23 2d       	mov	r18, r3
 9a8:	2e 7f       	andi	r18, 0xFE	; 254
 9aa:	a2 2e       	mov	r10, r18
 9ac:	89 14       	cp	r8, r9
 9ae:	58 f4       	brcc	.+22     	; 0x9c6 <vfprintf+0x2c0>
 9b0:	34 fe       	sbrs	r3, 4
 9b2:	0b c0       	rjmp	.+22     	; 0x9ca <vfprintf+0x2c4>
 9b4:	32 fc       	sbrc	r3, 2
 9b6:	09 c0       	rjmp	.+18     	; 0x9ca <vfprintf+0x2c4>
 9b8:	83 2d       	mov	r24, r3
 9ba:	8e 7e       	andi	r24, 0xEE	; 238
 9bc:	a8 2e       	mov	r10, r24
 9be:	05 c0       	rjmp	.+10     	; 0x9ca <vfprintf+0x2c4>
 9c0:	b8 2c       	mov	r11, r8
 9c2:	a3 2c       	mov	r10, r3
 9c4:	03 c0       	rjmp	.+6      	; 0x9cc <vfprintf+0x2c6>
 9c6:	b8 2c       	mov	r11, r8
 9c8:	01 c0       	rjmp	.+2      	; 0x9cc <vfprintf+0x2c6>
 9ca:	b9 2c       	mov	r11, r9
 9cc:	a4 fe       	sbrs	r10, 4
 9ce:	0f c0       	rjmp	.+30     	; 0x9ee <vfprintf+0x2e8>
 9d0:	fe 01       	movw	r30, r28
 9d2:	e8 0d       	add	r30, r8
 9d4:	f1 1d       	adc	r31, r1
 9d6:	80 81       	ld	r24, Z
 9d8:	80 33       	cpi	r24, 0x30	; 48
 9da:	21 f4       	brne	.+8      	; 0x9e4 <vfprintf+0x2de>
 9dc:	9a 2d       	mov	r25, r10
 9de:	99 7e       	andi	r25, 0xE9	; 233
 9e0:	a9 2e       	mov	r10, r25
 9e2:	09 c0       	rjmp	.+18     	; 0x9f6 <vfprintf+0x2f0>
 9e4:	a2 fe       	sbrs	r10, 2
 9e6:	06 c0       	rjmp	.+12     	; 0x9f4 <vfprintf+0x2ee>
 9e8:	b3 94       	inc	r11
 9ea:	b3 94       	inc	r11
 9ec:	04 c0       	rjmp	.+8      	; 0x9f6 <vfprintf+0x2f0>
 9ee:	8a 2d       	mov	r24, r10
 9f0:	86 78       	andi	r24, 0x86	; 134
 9f2:	09 f0       	breq	.+2      	; 0x9f6 <vfprintf+0x2f0>
 9f4:	b3 94       	inc	r11
 9f6:	a3 fc       	sbrc	r10, 3
 9f8:	10 c0       	rjmp	.+32     	; 0xa1a <vfprintf+0x314>
 9fa:	a0 fe       	sbrs	r10, 0
 9fc:	06 c0       	rjmp	.+12     	; 0xa0a <vfprintf+0x304>
 9fe:	b2 14       	cp	r11, r2
 a00:	80 f4       	brcc	.+32     	; 0xa22 <vfprintf+0x31c>
 a02:	28 0c       	add	r2, r8
 a04:	92 2c       	mov	r9, r2
 a06:	9b 18       	sub	r9, r11
 a08:	0d c0       	rjmp	.+26     	; 0xa24 <vfprintf+0x31e>
 a0a:	b2 14       	cp	r11, r2
 a0c:	58 f4       	brcc	.+22     	; 0xa24 <vfprintf+0x31e>
 a0e:	b6 01       	movw	r22, r12
 a10:	80 e2       	ldi	r24, 0x20	; 32
 a12:	90 e0       	ldi	r25, 0x00	; 0
 a14:	60 d0       	rcall	.+192    	; 0xad6 <fputc>
 a16:	b3 94       	inc	r11
 a18:	f8 cf       	rjmp	.-16     	; 0xa0a <vfprintf+0x304>
 a1a:	b2 14       	cp	r11, r2
 a1c:	18 f4       	brcc	.+6      	; 0xa24 <vfprintf+0x31e>
 a1e:	2b 18       	sub	r2, r11
 a20:	02 c0       	rjmp	.+4      	; 0xa26 <vfprintf+0x320>
 a22:	98 2c       	mov	r9, r8
 a24:	21 2c       	mov	r2, r1
 a26:	a4 fe       	sbrs	r10, 4
 a28:	0f c0       	rjmp	.+30     	; 0xa48 <vfprintf+0x342>
 a2a:	b6 01       	movw	r22, r12
 a2c:	80 e3       	ldi	r24, 0x30	; 48
 a2e:	90 e0       	ldi	r25, 0x00	; 0
 a30:	52 d0       	rcall	.+164    	; 0xad6 <fputc>
 a32:	a2 fe       	sbrs	r10, 2
 a34:	16 c0       	rjmp	.+44     	; 0xa62 <vfprintf+0x35c>
 a36:	a1 fc       	sbrc	r10, 1
 a38:	03 c0       	rjmp	.+6      	; 0xa40 <vfprintf+0x33a>
 a3a:	88 e7       	ldi	r24, 0x78	; 120
 a3c:	90 e0       	ldi	r25, 0x00	; 0
 a3e:	02 c0       	rjmp	.+4      	; 0xa44 <vfprintf+0x33e>
 a40:	88 e5       	ldi	r24, 0x58	; 88
 a42:	90 e0       	ldi	r25, 0x00	; 0
 a44:	b6 01       	movw	r22, r12
 a46:	0c c0       	rjmp	.+24     	; 0xa60 <vfprintf+0x35a>
 a48:	8a 2d       	mov	r24, r10
 a4a:	86 78       	andi	r24, 0x86	; 134
 a4c:	51 f0       	breq	.+20     	; 0xa62 <vfprintf+0x35c>
 a4e:	a1 fe       	sbrs	r10, 1
 a50:	02 c0       	rjmp	.+4      	; 0xa56 <vfprintf+0x350>
 a52:	8b e2       	ldi	r24, 0x2B	; 43
 a54:	01 c0       	rjmp	.+2      	; 0xa58 <vfprintf+0x352>
 a56:	80 e2       	ldi	r24, 0x20	; 32
 a58:	a7 fc       	sbrc	r10, 7
 a5a:	8d e2       	ldi	r24, 0x2D	; 45
 a5c:	b6 01       	movw	r22, r12
 a5e:	90 e0       	ldi	r25, 0x00	; 0
 a60:	3a d0       	rcall	.+116    	; 0xad6 <fputc>
 a62:	89 14       	cp	r8, r9
 a64:	30 f4       	brcc	.+12     	; 0xa72 <vfprintf+0x36c>
 a66:	b6 01       	movw	r22, r12
 a68:	80 e3       	ldi	r24, 0x30	; 48
 a6a:	90 e0       	ldi	r25, 0x00	; 0
 a6c:	34 d0       	rcall	.+104    	; 0xad6 <fputc>
 a6e:	9a 94       	dec	r9
 a70:	f8 cf       	rjmp	.-16     	; 0xa62 <vfprintf+0x35c>
 a72:	8a 94       	dec	r8
 a74:	f3 01       	movw	r30, r6
 a76:	e8 0d       	add	r30, r8
 a78:	f1 1d       	adc	r31, r1
 a7a:	80 81       	ld	r24, Z
 a7c:	b6 01       	movw	r22, r12
 a7e:	90 e0       	ldi	r25, 0x00	; 0
 a80:	2a d0       	rcall	.+84     	; 0xad6 <fputc>
 a82:	81 10       	cpse	r8, r1
 a84:	f6 cf       	rjmp	.-20     	; 0xa72 <vfprintf+0x36c>
 a86:	22 20       	and	r2, r2
 a88:	09 f4       	brne	.+2      	; 0xa8c <vfprintf+0x386>
 a8a:	4e ce       	rjmp	.-868    	; 0x728 <vfprintf+0x22>
 a8c:	b6 01       	movw	r22, r12
 a8e:	80 e2       	ldi	r24, 0x20	; 32
 a90:	90 e0       	ldi	r25, 0x00	; 0
 a92:	21 d0       	rcall	.+66     	; 0xad6 <fputc>
 a94:	2a 94       	dec	r2
 a96:	f7 cf       	rjmp	.-18     	; 0xa86 <vfprintf+0x380>
 a98:	f6 01       	movw	r30, r12
 a9a:	86 81       	ldd	r24, Z+6	; 0x06
 a9c:	97 81       	ldd	r25, Z+7	; 0x07
 a9e:	02 c0       	rjmp	.+4      	; 0xaa4 <vfprintf+0x39e>
 aa0:	8f ef       	ldi	r24, 0xFF	; 255
 aa2:	9f ef       	ldi	r25, 0xFF	; 255
 aa4:	2b 96       	adiw	r28, 0x0b	; 11
 aa6:	e2 e1       	ldi	r30, 0x12	; 18
 aa8:	cc c0       	rjmp	.+408    	; 0xc42 <__epilogue_restores__>

00000aaa <strnlen_P>:
 aaa:	fc 01       	movw	r30, r24
 aac:	05 90       	lpm	r0, Z+
 aae:	61 50       	subi	r22, 0x01	; 1
 ab0:	70 40       	sbci	r23, 0x00	; 0
 ab2:	01 10       	cpse	r0, r1
 ab4:	d8 f7       	brcc	.-10     	; 0xaac <strnlen_P+0x2>
 ab6:	80 95       	com	r24
 ab8:	90 95       	com	r25
 aba:	8e 0f       	add	r24, r30
 abc:	9f 1f       	adc	r25, r31
 abe:	08 95       	ret

00000ac0 <strnlen>:
 ac0:	fc 01       	movw	r30, r24
 ac2:	61 50       	subi	r22, 0x01	; 1
 ac4:	70 40       	sbci	r23, 0x00	; 0
 ac6:	01 90       	ld	r0, Z+
 ac8:	01 10       	cpse	r0, r1
 aca:	d8 f7       	brcc	.-10     	; 0xac2 <strnlen+0x2>
 acc:	80 95       	com	r24
 ace:	90 95       	com	r25
 ad0:	8e 0f       	add	r24, r30
 ad2:	9f 1f       	adc	r25, r31
 ad4:	08 95       	ret

00000ad6 <fputc>:
 ad6:	0f 93       	push	r16
 ad8:	1f 93       	push	r17
 ada:	cf 93       	push	r28
 adc:	df 93       	push	r29
 ade:	fb 01       	movw	r30, r22
 ae0:	23 81       	ldd	r18, Z+3	; 0x03
 ae2:	21 fd       	sbrc	r18, 1
 ae4:	03 c0       	rjmp	.+6      	; 0xaec <fputc+0x16>
 ae6:	8f ef       	ldi	r24, 0xFF	; 255
 ae8:	9f ef       	ldi	r25, 0xFF	; 255
 aea:	2c c0       	rjmp	.+88     	; 0xb44 <fputc+0x6e>
 aec:	22 ff       	sbrs	r18, 2
 aee:	16 c0       	rjmp	.+44     	; 0xb1c <fputc+0x46>
 af0:	46 81       	ldd	r20, Z+6	; 0x06
 af2:	57 81       	ldd	r21, Z+7	; 0x07
 af4:	24 81       	ldd	r18, Z+4	; 0x04
 af6:	35 81       	ldd	r19, Z+5	; 0x05
 af8:	42 17       	cp	r20, r18
 afa:	53 07       	cpc	r21, r19
 afc:	44 f4       	brge	.+16     	; 0xb0e <fputc+0x38>
 afe:	a0 81       	ld	r26, Z
 b00:	b1 81       	ldd	r27, Z+1	; 0x01
 b02:	9d 01       	movw	r18, r26
 b04:	2f 5f       	subi	r18, 0xFF	; 255
 b06:	3f 4f       	sbci	r19, 0xFF	; 255
 b08:	31 83       	std	Z+1, r19	; 0x01
 b0a:	20 83       	st	Z, r18
 b0c:	8c 93       	st	X, r24
 b0e:	26 81       	ldd	r18, Z+6	; 0x06
 b10:	37 81       	ldd	r19, Z+7	; 0x07
 b12:	2f 5f       	subi	r18, 0xFF	; 255
 b14:	3f 4f       	sbci	r19, 0xFF	; 255
 b16:	37 83       	std	Z+7, r19	; 0x07
 b18:	26 83       	std	Z+6, r18	; 0x06
 b1a:	14 c0       	rjmp	.+40     	; 0xb44 <fputc+0x6e>
 b1c:	8b 01       	movw	r16, r22
 b1e:	ec 01       	movw	r28, r24
 b20:	fb 01       	movw	r30, r22
 b22:	00 84       	ldd	r0, Z+8	; 0x08
 b24:	f1 85       	ldd	r31, Z+9	; 0x09
 b26:	e0 2d       	mov	r30, r0
 b28:	09 95       	icall
 b2a:	89 2b       	or	r24, r25
 b2c:	e1 f6       	brne	.-72     	; 0xae6 <fputc+0x10>
 b2e:	d8 01       	movw	r26, r16
 b30:	16 96       	adiw	r26, 0x06	; 6
 b32:	8d 91       	ld	r24, X+
 b34:	9c 91       	ld	r25, X
 b36:	17 97       	sbiw	r26, 0x07	; 7
 b38:	01 96       	adiw	r24, 0x01	; 1
 b3a:	17 96       	adiw	r26, 0x07	; 7
 b3c:	9c 93       	st	X, r25
 b3e:	8e 93       	st	-X, r24
 b40:	16 97       	sbiw	r26, 0x06	; 6
 b42:	ce 01       	movw	r24, r28
 b44:	df 91       	pop	r29
 b46:	cf 91       	pop	r28
 b48:	1f 91       	pop	r17
 b4a:	0f 91       	pop	r16
 b4c:	08 95       	ret

00000b4e <__ultoa_invert>:
 b4e:	fa 01       	movw	r30, r20
 b50:	aa 27       	eor	r26, r26
 b52:	28 30       	cpi	r18, 0x08	; 8
 b54:	51 f1       	breq	.+84     	; 0xbaa <__ultoa_invert+0x5c>
 b56:	20 31       	cpi	r18, 0x10	; 16
 b58:	81 f1       	breq	.+96     	; 0xbba <__ultoa_invert+0x6c>
 b5a:	e8 94       	clt
 b5c:	6f 93       	push	r22
 b5e:	6e 7f       	andi	r22, 0xFE	; 254
 b60:	6e 5f       	subi	r22, 0xFE	; 254
 b62:	7f 4f       	sbci	r23, 0xFF	; 255
 b64:	8f 4f       	sbci	r24, 0xFF	; 255
 b66:	9f 4f       	sbci	r25, 0xFF	; 255
 b68:	af 4f       	sbci	r26, 0xFF	; 255
 b6a:	b1 e0       	ldi	r27, 0x01	; 1
 b6c:	3e d0       	rcall	.+124    	; 0xbea <__ultoa_invert+0x9c>
 b6e:	b4 e0       	ldi	r27, 0x04	; 4
 b70:	3c d0       	rcall	.+120    	; 0xbea <__ultoa_invert+0x9c>
 b72:	67 0f       	add	r22, r23
 b74:	78 1f       	adc	r23, r24
 b76:	89 1f       	adc	r24, r25
 b78:	9a 1f       	adc	r25, r26
 b7a:	a1 1d       	adc	r26, r1
 b7c:	68 0f       	add	r22, r24
 b7e:	79 1f       	adc	r23, r25
 b80:	8a 1f       	adc	r24, r26
 b82:	91 1d       	adc	r25, r1
 b84:	a1 1d       	adc	r26, r1
 b86:	6a 0f       	add	r22, r26
 b88:	71 1d       	adc	r23, r1
 b8a:	81 1d       	adc	r24, r1
 b8c:	91 1d       	adc	r25, r1
 b8e:	a1 1d       	adc	r26, r1
 b90:	20 d0       	rcall	.+64     	; 0xbd2 <__ultoa_invert+0x84>
 b92:	09 f4       	brne	.+2      	; 0xb96 <__ultoa_invert+0x48>
 b94:	68 94       	set
 b96:	3f 91       	pop	r19
 b98:	2a e0       	ldi	r18, 0x0A	; 10
 b9a:	26 9f       	mul	r18, r22
 b9c:	11 24       	eor	r1, r1
 b9e:	30 19       	sub	r19, r0
 ba0:	30 5d       	subi	r19, 0xD0	; 208
 ba2:	31 93       	st	Z+, r19
 ba4:	de f6       	brtc	.-74     	; 0xb5c <__ultoa_invert+0xe>
 ba6:	cf 01       	movw	r24, r30
 ba8:	08 95       	ret
 baa:	46 2f       	mov	r20, r22
 bac:	47 70       	andi	r20, 0x07	; 7
 bae:	40 5d       	subi	r20, 0xD0	; 208
 bb0:	41 93       	st	Z+, r20
 bb2:	b3 e0       	ldi	r27, 0x03	; 3
 bb4:	0f d0       	rcall	.+30     	; 0xbd4 <__ultoa_invert+0x86>
 bb6:	c9 f7       	brne	.-14     	; 0xbaa <__ultoa_invert+0x5c>
 bb8:	f6 cf       	rjmp	.-20     	; 0xba6 <__ultoa_invert+0x58>
 bba:	46 2f       	mov	r20, r22
 bbc:	4f 70       	andi	r20, 0x0F	; 15
 bbe:	40 5d       	subi	r20, 0xD0	; 208
 bc0:	4a 33       	cpi	r20, 0x3A	; 58
 bc2:	18 f0       	brcs	.+6      	; 0xbca <__ultoa_invert+0x7c>
 bc4:	49 5d       	subi	r20, 0xD9	; 217
 bc6:	31 fd       	sbrc	r19, 1
 bc8:	40 52       	subi	r20, 0x20	; 32
 bca:	41 93       	st	Z+, r20
 bcc:	02 d0       	rcall	.+4      	; 0xbd2 <__ultoa_invert+0x84>
 bce:	a9 f7       	brne	.-22     	; 0xbba <__ultoa_invert+0x6c>
 bd0:	ea cf       	rjmp	.-44     	; 0xba6 <__ultoa_invert+0x58>
 bd2:	b4 e0       	ldi	r27, 0x04	; 4
 bd4:	a6 95       	lsr	r26
 bd6:	97 95       	ror	r25
 bd8:	87 95       	ror	r24
 bda:	77 95       	ror	r23
 bdc:	67 95       	ror	r22
 bde:	ba 95       	dec	r27
 be0:	c9 f7       	brne	.-14     	; 0xbd4 <__ultoa_invert+0x86>
 be2:	00 97       	sbiw	r24, 0x00	; 0
 be4:	61 05       	cpc	r22, r1
 be6:	71 05       	cpc	r23, r1
 be8:	08 95       	ret
 bea:	9b 01       	movw	r18, r22
 bec:	ac 01       	movw	r20, r24
 bee:	0a 2e       	mov	r0, r26
 bf0:	06 94       	lsr	r0
 bf2:	57 95       	ror	r21
 bf4:	47 95       	ror	r20
 bf6:	37 95       	ror	r19
 bf8:	27 95       	ror	r18
 bfa:	ba 95       	dec	r27
 bfc:	c9 f7       	brne	.-14     	; 0xbf0 <__ultoa_invert+0xa2>
 bfe:	62 0f       	add	r22, r18
 c00:	73 1f       	adc	r23, r19
 c02:	84 1f       	adc	r24, r20
 c04:	95 1f       	adc	r25, r21
 c06:	a0 1d       	adc	r26, r0
 c08:	08 95       	ret

00000c0a <__prologue_saves__>:
 c0a:	2f 92       	push	r2
 c0c:	3f 92       	push	r3
 c0e:	4f 92       	push	r4
 c10:	5f 92       	push	r5
 c12:	6f 92       	push	r6
 c14:	7f 92       	push	r7
 c16:	8f 92       	push	r8
 c18:	9f 92       	push	r9
 c1a:	af 92       	push	r10
 c1c:	bf 92       	push	r11
 c1e:	cf 92       	push	r12
 c20:	df 92       	push	r13
 c22:	ef 92       	push	r14
 c24:	ff 92       	push	r15
 c26:	0f 93       	push	r16
 c28:	1f 93       	push	r17
 c2a:	cf 93       	push	r28
 c2c:	df 93       	push	r29
 c2e:	cd b7       	in	r28, 0x3d	; 61
 c30:	de b7       	in	r29, 0x3e	; 62
 c32:	ca 1b       	sub	r28, r26
 c34:	db 0b       	sbc	r29, r27
 c36:	0f b6       	in	r0, 0x3f	; 63
 c38:	f8 94       	cli
 c3a:	de bf       	out	0x3e, r29	; 62
 c3c:	0f be       	out	0x3f, r0	; 63
 c3e:	cd bf       	out	0x3d, r28	; 61
 c40:	09 94       	ijmp

00000c42 <__epilogue_restores__>:
 c42:	2a 88       	ldd	r2, Y+18	; 0x12
 c44:	39 88       	ldd	r3, Y+17	; 0x11
 c46:	48 88       	ldd	r4, Y+16	; 0x10
 c48:	5f 84       	ldd	r5, Y+15	; 0x0f
 c4a:	6e 84       	ldd	r6, Y+14	; 0x0e
 c4c:	7d 84       	ldd	r7, Y+13	; 0x0d
 c4e:	8c 84       	ldd	r8, Y+12	; 0x0c
 c50:	9b 84       	ldd	r9, Y+11	; 0x0b
 c52:	aa 84       	ldd	r10, Y+10	; 0x0a
 c54:	b9 84       	ldd	r11, Y+9	; 0x09
 c56:	c8 84       	ldd	r12, Y+8	; 0x08
 c58:	df 80       	ldd	r13, Y+7	; 0x07
 c5a:	ee 80       	ldd	r14, Y+6	; 0x06
 c5c:	fd 80       	ldd	r15, Y+5	; 0x05
 c5e:	0c 81       	ldd	r16, Y+4	; 0x04
 c60:	1b 81       	ldd	r17, Y+3	; 0x03
 c62:	aa 81       	ldd	r26, Y+2	; 0x02
 c64:	b9 81       	ldd	r27, Y+1	; 0x01
 c66:	ce 0f       	add	r28, r30
 c68:	d1 1d       	adc	r29, r1
 c6a:	0f b6       	in	r0, 0x3f	; 63
 c6c:	f8 94       	cli
 c6e:	de bf       	out	0x3e, r29	; 62
 c70:	0f be       	out	0x3f, r0	; 63
 c72:	cd bf       	out	0x3d, r28	; 61
 c74:	ed 01       	movw	r28, r26
 c76:	08 95       	ret

00000c78 <_exit>:
 c78:	f8 94       	cli

00000c7a <__stop_program>:
 c7a:	ff cf       	rjmp	.-2      	; 0xc7a <__stop_program>
